ARM GAS  C:\Users\Anand\AppData\Local\Temp\ccBEzMQq.s 			page 1


   1              		.cpu cortex-m0
   2              		.fpu softvfp
   3              		.eabi_attribute 20, 1
   4              		.eabi_attribute 21, 1
   5              		.eabi_attribute 23, 3
   6              		.eabi_attribute 24, 1
   7              		.eabi_attribute 25, 1
   8              		.eabi_attribute 26, 1
   9              		.eabi_attribute 30, 1
  10              		.eabi_attribute 34, 0
  11              		.eabi_attribute 18, 4
  12              		.code	16
  13              		.file	"main.c"
  14              		.text
  15              	.Ltext0:
  16              		.cfi_sections	.debug_frame
  17              		.section	.text.rearrangeBits,"ax",%progbits
  18              		.align	2
  19              		.global	rearrangeBits
  20              		.code	16
  21              		.thumb_func
  22              		.type	rearrangeBits, %function
  23              	rearrangeBits:
  24              	.LFB33:
  25              		.file 1 ".\\main.c"
   1:.\main.c      **** #include <project.h>
   2:.\main.c      **** #include <stdio.h>
   3:.\main.c      **** #include <stdlib.h>
   4:.\main.c      **** #define MAX_BUFFER_SIZE 64
   5:.\main.c      **** 
   6:.\main.c      **** int rearrangeBits(int8 v){
  26              		.loc 1 6 0
  27              		.cfi_startproc
  28              	.LVL0:
  29 0000 30B5     		push	{r4, r5, lr}
  30              		.cfi_def_cfa_offset 12
  31              		.cfi_offset 4, -12
  32              		.cfi_offset 5, -8
  33              		.cfi_offset 14, -4
  34              	.LVL1:
   7:.\main.c      ****     int count = 0;
  35              		.loc 1 7 0
  36 0002 0023     		mov	r3, #0
   8:.\main.c      ****     int i;
   9:.\main.c      ****     
  10:.\main.c      ****     // count # of 1s, shift to the right to iterate
  11:.\main.c      ****     while (v){
  12:.\main.c      ****         if ((v & 1) == 1){
  37              		.loc 1 12 0
  38 0004 0122     		mov	r2, #1
  11:.\main.c      ****     while (v){
  39              		.loc 1 11 0
  40 0006 03E0     		b	.L2
  41              	.LVL2:
  42              	.L4:
  43              		.loc 1 12 0
  44 0008 0242     		tst	r2, r0
ARM GAS  C:\Users\Anand\AppData\Local\Temp\ccBEzMQq.s 			page 2


  45 000a 00D0     		beq	.L3
  13:.\main.c      ****           count++;  
  46              		.loc 1 13 0
  47 000c 0133     		add	r3, r3, #1
  48              	.LVL3:
  49              	.L3:
  14:.\main.c      ****         }
  15:.\main.c      ****         v = v>>1;
  50              		.loc 1 15 0
  51 000e 4010     		asr	r0, r0, #1
  52              	.LVL4:
  53              	.L2:
  11:.\main.c      ****     while (v){
  54              		.loc 1 11 0 discriminator 1
  55 0010 0028     		cmp	r0, #0
  56 0012 F9D1     		bne	.L4
  57              	.LBB2:
  16:.\main.c      ****     }
  17:.\main.c      ****     
  18:.\main.c      ****     uint8 num = v << 8;
  19:.\main.c      ****     
  20:.\main.c      ****     for(i = count; i >= 0; i--){
  21:.\main.c      ****         uint mask = i;
  22:.\main.c      ****         num = ((1 << (8-mask)) | num);  
  58              		.loc 1 22 0
  59 0014 0824     		mov	r4, #8
  60 0016 0121     		mov	r1, #1
  61 0018 05E0     		b	.L5
  62              	.LVL5:
  63              	.L6:
  64              		.loc 1 22 0 is_stmt 0 discriminator 2
  65 001a E21A     		sub	r2, r4, r3
  66 001c 0D1C     		mov	r5, r1
  67 001e 9540     		lsl	r5, r5, r2
  68 0020 2843     		orr	r0, r5
  69              	.LVL6:
  70 0022 C0B2     		uxtb	r0, r0
  71              	.LVL7:
  72              	.LBE2:
  20:.\main.c      ****     for(i = count; i >= 0; i--){
  73              		.loc 1 20 0 is_stmt 1 discriminator 2
  74 0024 013B     		sub	r3, r3, #1
  75              	.LVL8:
  76              	.L5:
  20:.\main.c      ****     for(i = count; i >= 0; i--){
  77              		.loc 1 20 0 is_stmt 0 discriminator 1
  78 0026 002B     		cmp	r3, #0
  79 0028 F7DA     		bge	.L6
  23:.\main.c      ****     }
  24:.\main.c      ****         
  25:.\main.c      ****     return num;                
  26:.\main.c      **** }
  80              		.loc 1 26 0 is_stmt 1
  81              		@ sp needed
  82 002a 30BD     		pop	{r4, r5, pc}
  83              		.cfi_endproc
  84              	.LFE33:
ARM GAS  C:\Users\Anand\AppData\Local\Temp\ccBEzMQq.s 			page 3


  85              		.size	rearrangeBits, .-rearrangeBits
  86              		.section	.text.main,"ax",%progbits
  87              		.align	2
  88              		.global	main
  89              		.code	16
  90              		.thumb_func
  91              		.type	main, %function
  92              	main:
  93              	.LFB34:
  27:.\main.c      **** int main(){
  94              		.loc 1 27 0
  95              		.cfi_startproc
  96 0000 70B5     		push	{r4, r5, r6, lr}
  97              		.cfi_def_cfa_offset 16
  98              		.cfi_offset 4, -16
  99              		.cfi_offset 5, -12
 100              		.cfi_offset 6, -8
 101              		.cfi_offset 14, -4
 102 0002 90B0     		sub	sp, sp, #64
 103              		.cfi_def_cfa_offset 80
  28:.\main.c      ****     char buffer[MAX_BUFFER_SIZE];
  29:.\main.c      ****     CyGlobalIntEnable;      /* Enable global interrupts */
 104              		.loc 1 29 0
 105              	@ 29 ".\main.c" 1
 106 0004 62B6     		CPSIE   i
 107              	@ 0 "" 2
  30:.\main.c      ****     
  31:.\main.c      ****     UART_1_Start();
 108              		.loc 1 31 0
 109              		.code	16
 110 0006 FFF7FEFF 		bl	UART_1_Start
 111              	.LVL9:
  32:.\main.c      ****     
  33:.\main.c      ****     strcpy(buffer, "Established Communication \n \r");   // Copy String Contents into buffer
 112              		.loc 1 33 0
 113 000a 0D49     		ldr	r1, .L9
 114 000c 6B46     		mov	r3, sp
 115 000e 0A1C     		mov	r2, r1
 116 0010 61CA     		ldmia	r2!, {r0, r5, r6}
 117 0012 61C3     		stmia	r3!, {r0, r5, r6}
 118 0014 23CA     		ldmia	r2!, {r0, r1, r5}
 119 0016 23C3     		stmia	r3!, {r0, r1, r5}
 120 0018 1668     		ldr	r6, [r2]
 121 001a 1E60     		str	r6, [r3]
 122 001c 9288     		ldrh	r2, [r2, #4]
 123 001e 9A80     		strh	r2, [r3, #4]
  34:.\main.c      ****     UART_1_UartPutString(buffer);
 124              		.loc 1 34 0
 125 0020 6846     		mov	r0, sp
 126 0022 FFF7FEFF 		bl	UART_1_UartPutString
 127              	.LVL10:
  35:.\main.c      ****     
  36:.\main.c      ****     int v = 0x56;
  37:.\main.c      ****     int flag = rearrangeBits(v);
 128              		.loc 1 37 0
 129 0026 5620     		mov	r0, #86
 130 0028 FFF7FEFF 		bl	rearrangeBits
ARM GAS  C:\Users\Anand\AppData\Local\Temp\ccBEzMQq.s 			page 4


 131              	.LVL11:
 132 002c 021C     		mov	r2, r0
 133              	.LVL12:
  38:.\main.c      ****     sprintf(buffer, "%04x", flag); /* Write the count value as a string. */
 134              		.loc 1 38 0
 135 002e 6846     		mov	r0, sp
 136              	.LVL13:
 137 0030 0449     		ldr	r1, .L9+4
 138 0032 FFF7FEFF 		bl	sprintf
 139              	.LVL14:
  39:.\main.c      ****     UART_1_UartPutString(buffer); /* Concatenate the new line and carriage return characters.*/
 140              		.loc 1 39 0
 141 0036 6846     		mov	r0, sp
 142 0038 FFF7FEFF 		bl	UART_1_UartPutString
 143              	.LVL15:
 144              	.L8:
 145 003c FEE7     		b	.L8
 146              	.L10:
 147 003e C046     		.align	2
 148              	.L9:
 149 0040 00000000 		.word	.LC0
 150 0044 20000000 		.word	.LC2
 151              		.cfi_endproc
 152              	.LFE34:
 153              		.size	main, .-main
 154              		.section	.rodata.str1.4,"aMS",%progbits,1
 155              		.align	2
 156              	.LC0:
 157 0000 45737461 		.ascii	"Established Communication \012 \015\000"
 157      626C6973 
 157      68656420 
 157      436F6D6D 
 157      756E6963 
 158 001e 0000     		.space	2
 159              	.LC2:
 160 0020 25303478 		.ascii	"%04x\000"
 160      00
 161 0025 000000   		.text
 162              	.Letext0:
 163              		.file 2 "Generated_Source\\PSoC4/cytypes.h"
 164              		.file 3 "c:\\program files (x86)\\cypress\\psoc creator\\3.2\\psoc creator\\import\\gnu\\arm\\4.8.
 165              		.file 4 "Generated_Source\\PSoC4/UART_1_SPI_UART.h"
 166              		.file 5 "c:\\program files (x86)\\cypress\\psoc creator\\3.2\\psoc creator\\import\\gnu\\arm\\4.8.
 167              		.file 6 "Generated_Source\\PSoC4/UART_1.h"