ARM GAS  C:\Users\Anand\AppData\Local\Temp\ccYKxY3A.s 			page 1


   1              		.cpu cortex-m0
   2              		.fpu softvfp
   3              		.eabi_attribute 20, 1
   4              		.eabi_attribute 21, 1
   5              		.eabi_attribute 23, 3
   6              		.eabi_attribute 24, 1
   7              		.eabi_attribute 25, 1
   8              		.eabi_attribute 26, 1
   9              		.eabi_attribute 30, 1
  10              		.eabi_attribute 34, 0
  11              		.eabi_attribute 18, 4
  12              		.code	16
  13              		.file	"cyfitter_cfg.c"
  14              		.text
  15              	.Ltext0:
  16              		.cfi_sections	.debug_frame
  17              		.section	.text.cfg_write_bytes32,"ax",%progbits
  18              		.align	2
  19              		.code	16
  20              		.thumb_func
  21              		.type	cfg_write_bytes32, %function
  22              	cfg_write_bytes32:
  23              	.LFB3:
  24              		.file 1 ".\\Generated_Source\\PSoC4\\cyfitter_cfg.c"
   1:.\Generated_Source\PSoC4/cyfitter_cfg.c **** /*******************************************************************************
   2:.\Generated_Source\PSoC4/cyfitter_cfg.c **** * FILENAME: cyfitter_cfg.c
   3:.\Generated_Source\PSoC4/cyfitter_cfg.c **** * 
   4:.\Generated_Source\PSoC4/cyfitter_cfg.c **** * PSoC Creator  3.2
   5:.\Generated_Source\PSoC4/cyfitter_cfg.c **** *
   6:.\Generated_Source\PSoC4/cyfitter_cfg.c **** * DESCRIPTION:
   7:.\Generated_Source\PSoC4/cyfitter_cfg.c **** * This file contains device initialization code.
   8:.\Generated_Source\PSoC4/cyfitter_cfg.c **** * Except for the user defined sections in CyClockStartupError(), this file should not be modified.
   9:.\Generated_Source\PSoC4/cyfitter_cfg.c **** * This file is automatically generated by PSoC Creator.
  10:.\Generated_Source\PSoC4/cyfitter_cfg.c **** *
  11:.\Generated_Source\PSoC4/cyfitter_cfg.c **** ********************************************************************************
  12:.\Generated_Source\PSoC4/cyfitter_cfg.c **** * Copyright (c) 2007-2015 Cypress Semiconductor.  All rights reserved.
  13:.\Generated_Source\PSoC4/cyfitter_cfg.c **** * You may use this file only in accordance with the license, terms, conditions, 
  14:.\Generated_Source\PSoC4/cyfitter_cfg.c **** * disclaimers, and limitations in the end user license agreement accompanying 
  15:.\Generated_Source\PSoC4/cyfitter_cfg.c **** * the software package with which this file was provided.
  16:.\Generated_Source\PSoC4/cyfitter_cfg.c **** ********************************************************************************/
  17:.\Generated_Source\PSoC4/cyfitter_cfg.c **** 
  18:.\Generated_Source\PSoC4/cyfitter_cfg.c **** #include <string.h>
  19:.\Generated_Source\PSoC4/cyfitter_cfg.c **** #include "cytypes.h"
  20:.\Generated_Source\PSoC4/cyfitter_cfg.c **** #include "cydevice_trm.h"
  21:.\Generated_Source\PSoC4/cyfitter_cfg.c **** #include "cyfitter.h"
  22:.\Generated_Source\PSoC4/cyfitter_cfg.c **** #include "CyLib.h"
  23:.\Generated_Source\PSoC4/cyfitter_cfg.c **** #include "CyLFClk.h"
  24:.\Generated_Source\PSoC4/cyfitter_cfg.c **** #include "cyfitter_cfg.h"
  25:.\Generated_Source\PSoC4/cyfitter_cfg.c **** 
  26:.\Generated_Source\PSoC4/cyfitter_cfg.c **** 
  27:.\Generated_Source\PSoC4/cyfitter_cfg.c **** #if defined(__GNUC__) || defined(__ARMCC_VERSION)
  28:.\Generated_Source\PSoC4/cyfitter_cfg.c ****     #define CYPACKED 
  29:.\Generated_Source\PSoC4/cyfitter_cfg.c ****     #define CYPACKED_ATTR __attribute__ ((packed))
  30:.\Generated_Source\PSoC4/cyfitter_cfg.c ****     #define CYALIGNED __attribute__ ((aligned))
  31:.\Generated_Source\PSoC4/cyfitter_cfg.c ****     #define CY_CFG_UNUSED __attribute__ ((unused))
  32:.\Generated_Source\PSoC4/cyfitter_cfg.c ****     #define CY_CFG_SECTION __attribute__ ((section(".psocinit")))
  33:.\Generated_Source\PSoC4/cyfitter_cfg.c ****     
ARM GAS  C:\Users\Anand\AppData\Local\Temp\ccYKxY3A.s 			page 2


  34:.\Generated_Source\PSoC4/cyfitter_cfg.c ****     #if defined(__ARMCC_VERSION)
  35:.\Generated_Source\PSoC4/cyfitter_cfg.c ****         #define CY_CFG_MEMORY_BARRIER() __memory_changed()
  36:.\Generated_Source\PSoC4/cyfitter_cfg.c ****     #else
  37:.\Generated_Source\PSoC4/cyfitter_cfg.c ****         #define CY_CFG_MEMORY_BARRIER() __sync_synchronize()
  38:.\Generated_Source\PSoC4/cyfitter_cfg.c ****     #endif
  39:.\Generated_Source\PSoC4/cyfitter_cfg.c ****     
  40:.\Generated_Source\PSoC4/cyfitter_cfg.c **** #elif defined(__ICCARM__)
  41:.\Generated_Source\PSoC4/cyfitter_cfg.c ****     #include <intrinsics.h>
  42:.\Generated_Source\PSoC4/cyfitter_cfg.c **** 
  43:.\Generated_Source\PSoC4/cyfitter_cfg.c ****     #define CYPACKED __packed
  44:.\Generated_Source\PSoC4/cyfitter_cfg.c ****     #define CYPACKED_ATTR 
  45:.\Generated_Source\PSoC4/cyfitter_cfg.c ****     #define CYALIGNED _Pragma("data_alignment=4")
  46:.\Generated_Source\PSoC4/cyfitter_cfg.c ****     #define CY_CFG_UNUSED _Pragma("diag_suppress=Pe177")
  47:.\Generated_Source\PSoC4/cyfitter_cfg.c ****     #define CY_CFG_SECTION _Pragma("location=\".psocinit\"")
  48:.\Generated_Source\PSoC4/cyfitter_cfg.c ****     
  49:.\Generated_Source\PSoC4/cyfitter_cfg.c ****     #define CY_CFG_MEMORY_BARRIER() __DMB()
  50:.\Generated_Source\PSoC4/cyfitter_cfg.c ****     
  51:.\Generated_Source\PSoC4/cyfitter_cfg.c **** #else
  52:.\Generated_Source\PSoC4/cyfitter_cfg.c ****     #error Unsupported toolchain
  53:.\Generated_Source\PSoC4/cyfitter_cfg.c **** #endif
  54:.\Generated_Source\PSoC4/cyfitter_cfg.c **** 
  55:.\Generated_Source\PSoC4/cyfitter_cfg.c **** 
  56:.\Generated_Source\PSoC4/cyfitter_cfg.c **** CY_CFG_UNUSED
  57:.\Generated_Source\PSoC4/cyfitter_cfg.c **** static void CYMEMZERO(void *s, size_t n);
  58:.\Generated_Source\PSoC4/cyfitter_cfg.c **** CY_CFG_UNUSED
  59:.\Generated_Source\PSoC4/cyfitter_cfg.c **** static void CYMEMZERO(void *s, size_t n)
  60:.\Generated_Source\PSoC4/cyfitter_cfg.c **** {
  61:.\Generated_Source\PSoC4/cyfitter_cfg.c **** 	(void)memset(s, 0, n);
  62:.\Generated_Source\PSoC4/cyfitter_cfg.c **** }
  63:.\Generated_Source\PSoC4/cyfitter_cfg.c **** CY_CFG_UNUSED
  64:.\Generated_Source\PSoC4/cyfitter_cfg.c **** static void CYCONFIGCPY(void *dest, const void *src, size_t n);
  65:.\Generated_Source\PSoC4/cyfitter_cfg.c **** CY_CFG_UNUSED
  66:.\Generated_Source\PSoC4/cyfitter_cfg.c **** static void CYCONFIGCPY(void *dest, const void *src, size_t n)
  67:.\Generated_Source\PSoC4/cyfitter_cfg.c **** {
  68:.\Generated_Source\PSoC4/cyfitter_cfg.c **** 	(void)memcpy(dest, src, n);
  69:.\Generated_Source\PSoC4/cyfitter_cfg.c **** }
  70:.\Generated_Source\PSoC4/cyfitter_cfg.c **** CY_CFG_UNUSED
  71:.\Generated_Source\PSoC4/cyfitter_cfg.c **** static void CYCONFIGCPYCODE(void *dest, const void *src, size_t n);
  72:.\Generated_Source\PSoC4/cyfitter_cfg.c **** CY_CFG_UNUSED
  73:.\Generated_Source\PSoC4/cyfitter_cfg.c **** static void CYCONFIGCPYCODE(void *dest, const void *src, size_t n)
  74:.\Generated_Source\PSoC4/cyfitter_cfg.c **** {
  75:.\Generated_Source\PSoC4/cyfitter_cfg.c **** 	(void)memcpy(dest, src, n);
  76:.\Generated_Source\PSoC4/cyfitter_cfg.c **** }
  77:.\Generated_Source\PSoC4/cyfitter_cfg.c **** 
  78:.\Generated_Source\PSoC4/cyfitter_cfg.c **** 
  79:.\Generated_Source\PSoC4/cyfitter_cfg.c **** 
  80:.\Generated_Source\PSoC4/cyfitter_cfg.c **** /* Clock startup error codes                                                   */
  81:.\Generated_Source\PSoC4/cyfitter_cfg.c **** #define CYCLOCKSTART_NO_ERROR    0u
  82:.\Generated_Source\PSoC4/cyfitter_cfg.c **** #define CYCLOCKSTART_XTAL_ERROR  1u
  83:.\Generated_Source\PSoC4/cyfitter_cfg.c **** #define CYCLOCKSTART_32KHZ_ERROR 2u
  84:.\Generated_Source\PSoC4/cyfitter_cfg.c **** #define CYCLOCKSTART_PLL_ERROR   3u
  85:.\Generated_Source\PSoC4/cyfitter_cfg.c **** 
  86:.\Generated_Source\PSoC4/cyfitter_cfg.c **** #ifdef CY_NEED_CYCLOCKSTARTUPERROR
  87:.\Generated_Source\PSoC4/cyfitter_cfg.c **** /*******************************************************************************
  88:.\Generated_Source\PSoC4/cyfitter_cfg.c **** * Function Name: CyClockStartupError
  89:.\Generated_Source\PSoC4/cyfitter_cfg.c **** ********************************************************************************
  90:.\Generated_Source\PSoC4/cyfitter_cfg.c **** * Summary:
ARM GAS  C:\Users\Anand\AppData\Local\Temp\ccYKxY3A.s 			page 3


  91:.\Generated_Source\PSoC4/cyfitter_cfg.c **** *  If an error is encountered during clock configuration (crystal startup error,
  92:.\Generated_Source\PSoC4/cyfitter_cfg.c **** *  PLL lock error, etc.), the system will end up here.  Unless reimplemented by
  93:.\Generated_Source\PSoC4/cyfitter_cfg.c **** *  the customer, this function will stop in an infinite loop.
  94:.\Generated_Source\PSoC4/cyfitter_cfg.c **** *
  95:.\Generated_Source\PSoC4/cyfitter_cfg.c **** * Parameters:
  96:.\Generated_Source\PSoC4/cyfitter_cfg.c **** *   void
  97:.\Generated_Source\PSoC4/cyfitter_cfg.c **** *
  98:.\Generated_Source\PSoC4/cyfitter_cfg.c **** * Return:
  99:.\Generated_Source\PSoC4/cyfitter_cfg.c **** *   void
 100:.\Generated_Source\PSoC4/cyfitter_cfg.c **** *
 101:.\Generated_Source\PSoC4/cyfitter_cfg.c **** *******************************************************************************/
 102:.\Generated_Source\PSoC4/cyfitter_cfg.c **** CY_CFG_UNUSED
 103:.\Generated_Source\PSoC4/cyfitter_cfg.c **** static void CyClockStartupError(uint8 errorCode);
 104:.\Generated_Source\PSoC4/cyfitter_cfg.c **** CY_CFG_UNUSED
 105:.\Generated_Source\PSoC4/cyfitter_cfg.c **** static void CyClockStartupError(uint8 errorCode)
 106:.\Generated_Source\PSoC4/cyfitter_cfg.c **** {
 107:.\Generated_Source\PSoC4/cyfitter_cfg.c ****     /* To remove the compiler warning if errorCode not used.                */
 108:.\Generated_Source\PSoC4/cyfitter_cfg.c ****     errorCode = errorCode;
 109:.\Generated_Source\PSoC4/cyfitter_cfg.c **** 
 110:.\Generated_Source\PSoC4/cyfitter_cfg.c ****     /* `#START CyClockStartupError` */
 111:.\Generated_Source\PSoC4/cyfitter_cfg.c **** 
 112:.\Generated_Source\PSoC4/cyfitter_cfg.c ****     /* If we have a clock startup error (bad MHz crystal, PLL lock, etc.),  */
 113:.\Generated_Source\PSoC4/cyfitter_cfg.c ****     /* we will end up here to allow the customer to implement something to  */
 114:.\Generated_Source\PSoC4/cyfitter_cfg.c ****     /* deal with the clock condition.                                       */
 115:.\Generated_Source\PSoC4/cyfitter_cfg.c **** 
 116:.\Generated_Source\PSoC4/cyfitter_cfg.c ****     /* `#END` */
 117:.\Generated_Source\PSoC4/cyfitter_cfg.c **** 
 118:.\Generated_Source\PSoC4/cyfitter_cfg.c ****     /* If nothing else, stop here since the clocks have not started         */
 119:.\Generated_Source\PSoC4/cyfitter_cfg.c ****     /* correctly.                                                           */
 120:.\Generated_Source\PSoC4/cyfitter_cfg.c ****     while(1) {}
 121:.\Generated_Source\PSoC4/cyfitter_cfg.c **** }
 122:.\Generated_Source\PSoC4/cyfitter_cfg.c **** #endif
 123:.\Generated_Source\PSoC4/cyfitter_cfg.c **** 
 124:.\Generated_Source\PSoC4/cyfitter_cfg.c **** #define CY_CFG_BASE_ADDR_COUNT 8u
 125:.\Generated_Source\PSoC4/cyfitter_cfg.c **** CYPACKED typedef struct
 126:.\Generated_Source\PSoC4/cyfitter_cfg.c **** {
 127:.\Generated_Source\PSoC4/cyfitter_cfg.c **** 	uint8 offset;
 128:.\Generated_Source\PSoC4/cyfitter_cfg.c **** 	uint8 value;
 129:.\Generated_Source\PSoC4/cyfitter_cfg.c **** } CYPACKED_ATTR cy_cfg_addrvalue_t;
 130:.\Generated_Source\PSoC4/cyfitter_cfg.c **** 
 131:.\Generated_Source\PSoC4/cyfitter_cfg.c **** 
 132:.\Generated_Source\PSoC4/cyfitter_cfg.c **** 
 133:.\Generated_Source\PSoC4/cyfitter_cfg.c **** /*******************************************************************************
 134:.\Generated_Source\PSoC4/cyfitter_cfg.c **** * Function Name: cfg_write_bytes32
 135:.\Generated_Source\PSoC4/cyfitter_cfg.c **** ********************************************************************************
 136:.\Generated_Source\PSoC4/cyfitter_cfg.c **** * Summary:
 137:.\Generated_Source\PSoC4/cyfitter_cfg.c **** *  This function is used for setting up the chip configuration areas that
 138:.\Generated_Source\PSoC4/cyfitter_cfg.c **** *  contain relatively sparse data.
 139:.\Generated_Source\PSoC4/cyfitter_cfg.c **** *
 140:.\Generated_Source\PSoC4/cyfitter_cfg.c **** * Parameters:
 141:.\Generated_Source\PSoC4/cyfitter_cfg.c **** *   void
 142:.\Generated_Source\PSoC4/cyfitter_cfg.c **** *
 143:.\Generated_Source\PSoC4/cyfitter_cfg.c **** * Return:
 144:.\Generated_Source\PSoC4/cyfitter_cfg.c **** *   void
 145:.\Generated_Source\PSoC4/cyfitter_cfg.c **** *
 146:.\Generated_Source\PSoC4/cyfitter_cfg.c **** *******************************************************************************/
 147:.\Generated_Source\PSoC4/cyfitter_cfg.c **** static void cfg_write_bytes32(const uint32 addr_table[], const cy_cfg_addrvalue_t data_table[]);
ARM GAS  C:\Users\Anand\AppData\Local\Temp\ccYKxY3A.s 			page 4


 148:.\Generated_Source\PSoC4/cyfitter_cfg.c **** static void cfg_write_bytes32(const uint32 addr_table[], const cy_cfg_addrvalue_t data_table[])
 149:.\Generated_Source\PSoC4/cyfitter_cfg.c **** {
  25              		.loc 1 149 0
  26              		.cfi_startproc
  27              	.LVL0:
  28 0000 F0B5     		push	{r4, r5, r6, r7, lr}
  29              		.cfi_def_cfa_offset 20
  30              		.cfi_offset 4, -20
  31              		.cfi_offset 5, -16
  32              		.cfi_offset 6, -12
  33              		.cfi_offset 7, -8
  34              		.cfi_offset 14, -4
  35              	.LVL1:
 150:.\Generated_Source\PSoC4/cyfitter_cfg.c **** 	/* For 32-bit little-endian architectures */
 151:.\Generated_Source\PSoC4/cyfitter_cfg.c **** 	uint32 i, j = 0u;
  36              		.loc 1 151 0
  37 0002 0022     		mov	r2, #0
 152:.\Generated_Source\PSoC4/cyfitter_cfg.c **** 	for (i = 0u; i < CY_CFG_BASE_ADDR_COUNT; i++)
  38              		.loc 1 152 0
  39 0004 0027     		mov	r7, #0
  40              	.LBB2:
 153:.\Generated_Source\PSoC4/cyfitter_cfg.c **** 	{
 154:.\Generated_Source\PSoC4/cyfitter_cfg.c **** 		uint32 baseAddr = addr_table[i];
 155:.\Generated_Source\PSoC4/cyfitter_cfg.c **** 		uint8 count = (uint8)baseAddr;
 156:.\Generated_Source\PSoC4/cyfitter_cfg.c **** 		baseAddr &= 0xFFFFFF00u;
  41              		.loc 1 156 0
  42 0006 FF23     		mov	r3, #255
  43 0008 9C46     		mov	ip, r3
  44              	.LBE2:
 152:.\Generated_Source\PSoC4/cyfitter_cfg.c **** 	for (i = 0u; i < CY_CFG_BASE_ADDR_COUNT; i++)
  45              		.loc 1 152 0
  46 000a 11E0     		b	.L2
  47              	.LVL2:
  48              	.L5:
  49              	.LBB3:
 154:.\Generated_Source\PSoC4/cyfitter_cfg.c **** 		uint32 baseAddr = addr_table[i];
  50              		.loc 1 154 0
  51 000c BB00     		lsl	r3, r7, #2
  52 000e C658     		ldr	r6, [r0, r3]
  53              	.LVL3:
 155:.\Generated_Source\PSoC4/cyfitter_cfg.c **** 		uint8 count = (uint8)baseAddr;
  54              		.loc 1 155 0
  55 0010 F3B2     		uxtb	r3, r6
  56              	.LVL4:
  57              		.loc 1 156 0
  58 0012 6446     		mov	r4, ip
  59 0014 A643     		bic	r6, r4
  60              	.LVL5:
 157:.\Generated_Source\PSoC4/cyfitter_cfg.c **** 		while (count != 0u)
  61              		.loc 1 157 0
  62 0016 08E0     		b	.L3
  63              	.L4:
 158:.\Generated_Source\PSoC4/cyfitter_cfg.c **** 		{
 159:.\Generated_Source\PSoC4/cyfitter_cfg.c **** 			CY_SET_XTND_REG8((void CYFAR *)(baseAddr + data_table[j].offset), data_table[j].value);
  64              		.loc 1 159 0
  65 0018 5400     		lsl	r4, r2, #1
  66 001a 0C19     		add	r4, r1, r4
ARM GAS  C:\Users\Anand\AppData\Local\Temp\ccYKxY3A.s 			page 5


  67 001c 2578     		ldrb	r5, [r4]
  68 001e AD19     		add	r5, r5, r6
  69 0020 6478     		ldrb	r4, [r4, #1]
  70 0022 2C70     		strb	r4, [r5]
 160:.\Generated_Source\PSoC4/cyfitter_cfg.c **** 			j++;
  71              		.loc 1 160 0
  72 0024 0132     		add	r2, r2, #1
  73              	.LVL6:
 161:.\Generated_Source\PSoC4/cyfitter_cfg.c **** 			count--;
  74              		.loc 1 161 0
  75 0026 013B     		sub	r3, r3, #1
  76              	.LVL7:
  77 0028 DBB2     		uxtb	r3, r3
  78              	.LVL8:
  79              	.L3:
 157:.\Generated_Source\PSoC4/cyfitter_cfg.c **** 		while (count != 0u)
  80              		.loc 1 157 0 discriminator 1
  81 002a 002B     		cmp	r3, #0
  82 002c F4D1     		bne	.L4
  83              	.LBE3:
 152:.\Generated_Source\PSoC4/cyfitter_cfg.c **** 	for (i = 0u; i < CY_CFG_BASE_ADDR_COUNT; i++)
  84              		.loc 1 152 0
  85 002e 0137     		add	r7, r7, #1
  86              	.LVL9:
  87              	.L2:
 152:.\Generated_Source\PSoC4/cyfitter_cfg.c **** 	for (i = 0u; i < CY_CFG_BASE_ADDR_COUNT; i++)
  88              		.loc 1 152 0 is_stmt 0 discriminator 1
  89 0030 072F     		cmp	r7, #7
  90 0032 EBD9     		bls	.L5
 162:.\Generated_Source\PSoC4/cyfitter_cfg.c **** 		}
 163:.\Generated_Source\PSoC4/cyfitter_cfg.c **** 	}
 164:.\Generated_Source\PSoC4/cyfitter_cfg.c **** }
  91              		.loc 1 164 0 is_stmt 1
  92              		@ sp needed
  93              	.LVL10:
  94 0034 F0BD     		pop	{r4, r5, r6, r7, pc}
  95              		.cfi_endproc
  96              	.LFE3:
  97              		.size	cfg_write_bytes32, .-cfg_write_bytes32
  98 0036 C046     		.section	.text.CYMEMZERO,"ax",%progbits
  99              		.align	2
 100              		.code	16
 101              		.thumb_func
 102              		.type	CYMEMZERO, %function
 103              	CYMEMZERO:
 104              	.LFB0:
  60:.\Generated_Source\PSoC4/cyfitter_cfg.c **** {
 105              		.loc 1 60 0
 106              		.cfi_startproc
 107              	.LVL11:
 108 0000 08B5     		push	{r3, lr}
 109              		.cfi_def_cfa_offset 8
 110              		.cfi_offset 3, -8
 111              		.cfi_offset 14, -4
 112 0002 0A1C     		mov	r2, r1
  61:.\Generated_Source\PSoC4/cyfitter_cfg.c **** 	(void)memset(s, 0, n);
 113              		.loc 1 61 0
ARM GAS  C:\Users\Anand\AppData\Local\Temp\ccYKxY3A.s 			page 6


 114 0004 0021     		mov	r1, #0
 115              	.LVL12:
 116 0006 FFF7FEFF 		bl	memset
 117              	.LVL13:
  62:.\Generated_Source\PSoC4/cyfitter_cfg.c **** }
 118              		.loc 1 62 0
 119              		@ sp needed
 120 000a 08BD     		pop	{r3, pc}
 121              		.cfi_endproc
 122              	.LFE0:
 123              		.size	CYMEMZERO, .-CYMEMZERO
 124              		.section	.psocinit,"ax",%progbits
 125              		.align	2
 126              		.code	16
 127              		.thumb_func
 128              		.type	ClockSetup, %function
 129              	ClockSetup:
 130              	.LFB4:
 165:.\Generated_Source\PSoC4/cyfitter_cfg.c **** 
 166:.\Generated_Source\PSoC4/cyfitter_cfg.c **** 
 167:.\Generated_Source\PSoC4/cyfitter_cfg.c **** /*******************************************************************************
 168:.\Generated_Source\PSoC4/cyfitter_cfg.c **** * Function Name: ClockSetup
 169:.\Generated_Source\PSoC4/cyfitter_cfg.c **** ********************************************************************************
 170:.\Generated_Source\PSoC4/cyfitter_cfg.c **** *
 171:.\Generated_Source\PSoC4/cyfitter_cfg.c **** * Summary:
 172:.\Generated_Source\PSoC4/cyfitter_cfg.c **** *   Performs the initialization of all of the clocks in the device based on the
 173:.\Generated_Source\PSoC4/cyfitter_cfg.c **** *   settings in the Clock tab of the DWR.  This includes enabling the requested
 174:.\Generated_Source\PSoC4/cyfitter_cfg.c **** *   clocks and setting the necessary dividers to produce the desired frequency. 
 175:.\Generated_Source\PSoC4/cyfitter_cfg.c **** *
 176:.\Generated_Source\PSoC4/cyfitter_cfg.c **** * Parameters:
 177:.\Generated_Source\PSoC4/cyfitter_cfg.c **** *   void
 178:.\Generated_Source\PSoC4/cyfitter_cfg.c **** *
 179:.\Generated_Source\PSoC4/cyfitter_cfg.c **** * Return:
 180:.\Generated_Source\PSoC4/cyfitter_cfg.c **** *   void
 181:.\Generated_Source\PSoC4/cyfitter_cfg.c **** *
 182:.\Generated_Source\PSoC4/cyfitter_cfg.c **** *******************************************************************************/
 183:.\Generated_Source\PSoC4/cyfitter_cfg.c **** static void ClockSetup(void);
 184:.\Generated_Source\PSoC4/cyfitter_cfg.c **** CY_CFG_SECTION
 185:.\Generated_Source\PSoC4/cyfitter_cfg.c **** static void ClockSetup(void)
 186:.\Generated_Source\PSoC4/cyfitter_cfg.c **** {
 131              		.loc 1 186 0
 132              		.cfi_startproc
 133 0000 10B5     		push	{r4, lr}
 134              		.cfi_def_cfa_offset 8
 135              		.cfi_offset 4, -8
 136              		.cfi_offset 14, -4
 187:.\Generated_Source\PSoC4/cyfitter_cfg.c **** 	/* Enable HALF_EN before trimming for the flash accelerator. */
 188:.\Generated_Source\PSoC4/cyfitter_cfg.c **** 	CY_SET_REG32((void CYXDATA *)(CYREG_CLK_SELECT), (CY_GET_REG32((void *)CYREG_CLK_SELECT) | 0x00040
 137              		.loc 1 188 0
 138 0002 214C     		ldr	r4, .L8
 139 0004 2268     		ldr	r2, [r4]
 140 0006 8023     		mov	r3, #128
 141 0008 DB02     		lsl	r3, r3, #11
 142 000a 1343     		orr	r3, r2
 143 000c 2360     		str	r3, [r4]
 189:.\Generated_Source\PSoC4/cyfitter_cfg.c **** 
 190:.\Generated_Source\PSoC4/cyfitter_cfg.c **** 	/* Setup and trim IMO based on desired frequency. */
ARM GAS  C:\Users\Anand\AppData\Local\Temp\ccYKxY3A.s 			page 7


 191:.\Generated_Source\PSoC4/cyfitter_cfg.c **** 	CySysClkWriteImoFreq(24u);
 144              		.loc 1 191 0
 145 000e 1820     		mov	r0, #24
 146 0010 FFF7FEFF 		bl	CySysClkWriteImoFreq
 147              	.LVL14:
 192:.\Generated_Source\PSoC4/cyfitter_cfg.c **** 
 193:.\Generated_Source\PSoC4/cyfitter_cfg.c **** 	/* Disable HALF_EN since it is not required at this IMO frequency. */
 194:.\Generated_Source\PSoC4/cyfitter_cfg.c **** 	CY_SET_REG32((void CYXDATA *)(CYREG_CLK_SELECT), (CY_GET_REG32((void *)CYREG_CLK_SELECT) & 0xFFFBF
 148              		.loc 1 194 0
 149 0014 2268     		ldr	r2, [r4]
 150 0016 1D4B     		ldr	r3, .L8+4
 151 0018 1340     		and	r3, r2
 152 001a 2360     		str	r3, [r4]
 195:.\Generated_Source\PSoC4/cyfitter_cfg.c **** 	/* CYDEV_CLK_ILO_CONFIG Starting address: CYDEV_CLK_ILO_CONFIG */
 196:.\Generated_Source\PSoC4/cyfitter_cfg.c **** 	CY_SET_XTND_REG32((void CYFAR *)(CYREG_CLK_ILO_CONFIG), 0x80000006u);
 153              		.loc 1 196 0
 154 001c 1C4A     		ldr	r2, .L8+8
 155 001e 1D4B     		ldr	r3, .L8+12
 156 0020 1A60     		str	r2, [r3]
 197:.\Generated_Source\PSoC4/cyfitter_cfg.c **** 
 198:.\Generated_Source\PSoC4/cyfitter_cfg.c **** 
 199:.\Generated_Source\PSoC4/cyfitter_cfg.c **** 	/* CYDEV_CLK_SELECT00 Starting address: CYDEV_CLK_SELECT00 */
 200:.\Generated_Source\PSoC4/cyfitter_cfg.c **** 	CY_SET_XTND_REG32((void CYFAR *)(CYREG_CLK_SELECT03), 0x00000021u);
 157              		.loc 1 200 0
 158 0022 2122     		mov	r2, #33
 159 0024 1C4B     		ldr	r3, .L8+16
 160 0026 1A60     		str	r2, [r3]
 201:.\Generated_Source\PSoC4/cyfitter_cfg.c **** 	CY_SET_XTND_REG32((void CYFAR *)(CYREG_CLK_SELECT05), 0x00000020u);
 161              		.loc 1 201 0
 162 0028 2022     		mov	r2, #32
 163 002a 1C4B     		ldr	r3, .L8+20
 164 002c 1A60     		str	r2, [r3]
 202:.\Generated_Source\PSoC4/cyfitter_cfg.c **** 	CY_SET_XTND_REG32((void CYFAR *)(CYREG_CLK_SELECT06), 0x00000010u);
 165              		.loc 1 202 0
 166 002e 1022     		mov	r2, #16
 167 0030 1B4B     		ldr	r3, .L8+24
 168 0032 1A60     		str	r2, [r3]
 203:.\Generated_Source\PSoC4/cyfitter_cfg.c **** 	CY_SET_XTND_REG32((void CYFAR *)(CYREG_CLK_SELECT07), 0x00000011u);
 169              		.loc 1 203 0
 170 0034 1122     		mov	r2, #17
 171 0036 1B4B     		ldr	r3, .L8+28
 172 0038 1A60     		str	r2, [r3]
 204:.\Generated_Source\PSoC4/cyfitter_cfg.c **** 	CY_SET_XTND_REG32((void CYFAR *)(CYREG_CLK_SELECT08), 0x00000030u);
 173              		.loc 1 204 0
 174 003a 3023     		mov	r3, #48
 175 003c 1A4A     		ldr	r2, .L8+32
 176 003e 1360     		str	r3, [r2]
 205:.\Generated_Source\PSoC4/cyfitter_cfg.c **** 	CY_SET_XTND_REG32((void CYFAR *)(CYREG_CLK_SELECT09), 0x00000030u);
 177              		.loc 1 205 0
 178 0040 1A4A     		ldr	r2, .L8+36
 179 0042 1360     		str	r3, [r2]
 206:.\Generated_Source\PSoC4/cyfitter_cfg.c **** 	CY_SET_XTND_REG32((void CYFAR *)(CYREG_CLK_SELECT10), 0x00000030u);
 180              		.loc 1 206 0
 181 0044 1A4A     		ldr	r2, .L8+40
 182 0046 1360     		str	r3, [r2]
 207:.\Generated_Source\PSoC4/cyfitter_cfg.c **** 	CY_SET_XTND_REG32((void CYFAR *)(CYREG_CLK_SELECT11), 0x00000030u);
 183              		.loc 1 207 0
ARM GAS  C:\Users\Anand\AppData\Local\Temp\ccYKxY3A.s 			page 8


 184 0048 1A4A     		ldr	r2, .L8+44
 185 004a 1360     		str	r3, [r2]
 208:.\Generated_Source\PSoC4/cyfitter_cfg.c **** 
 209:.\Generated_Source\PSoC4/cyfitter_cfg.c **** 	/* CYDEV_CLK_IMO_CONFIG Starting address: CYDEV_CLK_IMO_CONFIG */
 210:.\Generated_Source\PSoC4/cyfitter_cfg.c **** 	CY_SET_XTND_REG32((void CYFAR *)(CYREG_CLK_IMO_CONFIG), 0x82000000u);
 186              		.loc 1 210 0
 187 004c 8222     		mov	r2, #130
 188 004e 1206     		lsl	r2, r2, #24
 189 0050 194B     		ldr	r3, .L8+48
 190 0052 1A60     		str	r2, [r3]
 211:.\Generated_Source\PSoC4/cyfitter_cfg.c **** 
 212:.\Generated_Source\PSoC4/cyfitter_cfg.c **** 	/* CYDEV_CLK_DIVIDER_A00 Starting address: CYDEV_CLK_DIVIDER_A00 */
 213:.\Generated_Source\PSoC4/cyfitter_cfg.c **** 	CY_SET_XTND_REG32((void CYFAR *)(CYREG_CLK_DIVIDER_A00), 0x800000FEu);
 191              		.loc 1 213 0
 192 0054 194A     		ldr	r2, .L8+52
 193 0056 1A4B     		ldr	r3, .L8+56
 194 0058 1A60     		str	r2, [r3]
 214:.\Generated_Source\PSoC4/cyfitter_cfg.c **** 
 215:.\Generated_Source\PSoC4/cyfitter_cfg.c **** 	/* CYDEV_CLK_DIVIDER_B00 Starting address: CYDEV_CLK_DIVIDER_B00 */
 216:.\Generated_Source\PSoC4/cyfitter_cfg.c **** 	CY_SET_XTND_REG32((void CYFAR *)(CYREG_CLK_DIVIDER_B00), 0xC00000FEu);
 195              		.loc 1 216 0
 196 005a 1A4A     		ldr	r2, .L8+60
 197 005c 1A4B     		ldr	r3, .L8+64
 198 005e 1A60     		str	r2, [r3]
 217:.\Generated_Source\PSoC4/cyfitter_cfg.c **** 
 218:.\Generated_Source\PSoC4/cyfitter_cfg.c **** 	/* CYDEV_CLK_DIVIDER_C00 Starting address: CYDEV_CLK_DIVIDER_C00 */
 219:.\Generated_Source\PSoC4/cyfitter_cfg.c **** 	CY_SET_XTND_REG32((void CYFAR *)(CYREG_CLK_DIVIDER_C00), 0x80000017u);
 199              		.loc 1 219 0
 200 0060 1A4B     		ldr	r3, .L8+68
 201 0062 1B4A     		ldr	r2, .L8+72
 202 0064 1360     		str	r3, [r2]
 220:.\Generated_Source\PSoC4/cyfitter_cfg.c **** 
 221:.\Generated_Source\PSoC4/cyfitter_cfg.c **** 	/* CYDEV_CLK_DIVIDER_A01 Starting address: CYDEV_CLK_DIVIDER_A01 */
 222:.\Generated_Source\PSoC4/cyfitter_cfg.c **** 	CY_SET_XTND_REG32((void CYFAR *)(CYREG_CLK_DIVIDER_A01), 0x80000017u);
 203              		.loc 1 222 0
 204 0066 1B4A     		ldr	r2, .L8+76
 205 0068 1360     		str	r3, [r2]
 223:.\Generated_Source\PSoC4/cyfitter_cfg.c **** 
 224:.\Generated_Source\PSoC4/cyfitter_cfg.c **** 	/* CYDEV_CLK_DIVIDER_B01 Starting address: CYDEV_CLK_DIVIDER_B01 */
 225:.\Generated_Source\PSoC4/cyfitter_cfg.c **** 	CY_SET_XTND_REG32((void CYFAR *)(CYREG_CLK_DIVIDER_B01), 0x800000CFu);
 206              		.loc 1 225 0
 207 006a 1B4A     		ldr	r2, .L8+80
 208 006c 1B4B     		ldr	r3, .L8+84
 209 006e 1A60     		str	r2, [r3]
 226:.\Generated_Source\PSoC4/cyfitter_cfg.c **** 
 227:.\Generated_Source\PSoC4/cyfitter_cfg.c **** 	(void)CyIntSetVector(9u, &CySysWdtIsr);
 210              		.loc 1 227 0
 211 0070 0920     		mov	r0, #9
 212 0072 1B49     		ldr	r1, .L8+88
 213 0074 FFF7FEFF 		bl	CyIntSetVector
 214              	.LVL15:
 228:.\Generated_Source\PSoC4/cyfitter_cfg.c **** 	CyIntEnable(9u);
 215              		.loc 1 228 0
 216 0078 0920     		mov	r0, #9
 217 007a FFF7FEFF 		bl	CyIntEnable
 218              	.LVL16:
 229:.\Generated_Source\PSoC4/cyfitter_cfg.c **** 	CY_SET_XTND_REG32((void CYFAR *)(CYREG_WDT_CONFIG), 0x00000000u);
ARM GAS  C:\Users\Anand\AppData\Local\Temp\ccYKxY3A.s 			page 9


 219              		.loc 1 229 0
 220 007e 0022     		mov	r2, #0
 221 0080 184B     		ldr	r3, .L8+92
 222 0082 1A60     		str	r2, [r3]
 230:.\Generated_Source\PSoC4/cyfitter_cfg.c **** }
 223              		.loc 1 230 0
 224              		@ sp needed
 225 0084 10BD     		pop	{r4, pc}
 226              	.L9:
 227 0086 C046     		.align	2
 228              	.L8:
 229 0088 00010B40 		.word	1074462976
 230 008c FFFFFBFF 		.word	-262145
 231 0090 06000080 		.word	-2147483642
 232 0094 04010B40 		.word	1074462980
 233 0098 0C020240 		.word	1073873420
 234 009c 14020240 		.word	1073873428
 235 00a0 18020240 		.word	1073873432
 236 00a4 1C020240 		.word	1073873436
 237 00a8 20020240 		.word	1073873440
 238 00ac 24020240 		.word	1073873444
 239 00b0 28020240 		.word	1073873448
 240 00b4 2C020240 		.word	1073873452
 241 00b8 08010B40 		.word	1074462984
 242 00bc FE000080 		.word	-2147483394
 243 00c0 00000240 		.word	1073872896
 244 00c4 FE0000C0 		.word	-1073741570
 245 00c8 40000240 		.word	1073872960
 246 00cc 17000080 		.word	-2147483625
 247 00d0 80000240 		.word	1073873024
 248 00d4 04000240 		.word	1073872900
 249 00d8 CF000080 		.word	-2147483441
 250 00dc 44000240 		.word	1073872964
 251 00e0 00000000 		.word	CySysWdtIsr
 252 00e4 0C020B40 		.word	1074463244
 253              		.cfi_endproc
 254              	.LFE4:
 255              		.size	ClockSetup, .-ClockSetup
 256              		.section	.text.SetAnalogRoutingPumps,"ax",%progbits
 257              		.align	2
 258              		.global	SetAnalogRoutingPumps
 259              		.code	16
 260              		.thumb_func
 261              		.type	SetAnalogRoutingPumps, %function
 262              	SetAnalogRoutingPumps:
 263              	.LFB6:
 231:.\Generated_Source\PSoC4/cyfitter_cfg.c **** 
 232:.\Generated_Source\PSoC4/cyfitter_cfg.c **** 
 233:.\Generated_Source\PSoC4/cyfitter_cfg.c **** /* Analog API Functions */
 234:.\Generated_Source\PSoC4/cyfitter_cfg.c **** 
 235:.\Generated_Source\PSoC4/cyfitter_cfg.c **** 
 236:.\Generated_Source\PSoC4/cyfitter_cfg.c **** /*******************************************************************************
 237:.\Generated_Source\PSoC4/cyfitter_cfg.c **** * Function Name: AnalogSetDefault
 238:.\Generated_Source\PSoC4/cyfitter_cfg.c **** ********************************************************************************
 239:.\Generated_Source\PSoC4/cyfitter_cfg.c **** *
 240:.\Generated_Source\PSoC4/cyfitter_cfg.c **** * Summary:
 241:.\Generated_Source\PSoC4/cyfitter_cfg.c **** *  Sets up the analog portions of the chip to default values based on chip
ARM GAS  C:\Users\Anand\AppData\Local\Temp\ccYKxY3A.s 			page 10


 242:.\Generated_Source\PSoC4/cyfitter_cfg.c **** *  configuration options from the project.
 243:.\Generated_Source\PSoC4/cyfitter_cfg.c **** *
 244:.\Generated_Source\PSoC4/cyfitter_cfg.c **** * Parameters:
 245:.\Generated_Source\PSoC4/cyfitter_cfg.c **** *  void
 246:.\Generated_Source\PSoC4/cyfitter_cfg.c **** *
 247:.\Generated_Source\PSoC4/cyfitter_cfg.c **** * Return:
 248:.\Generated_Source\PSoC4/cyfitter_cfg.c **** *  void
 249:.\Generated_Source\PSoC4/cyfitter_cfg.c **** *
 250:.\Generated_Source\PSoC4/cyfitter_cfg.c **** *******************************************************************************/
 251:.\Generated_Source\PSoC4/cyfitter_cfg.c **** static void AnalogSetDefault(void);
 252:.\Generated_Source\PSoC4/cyfitter_cfg.c **** static void AnalogSetDefault(void)
 253:.\Generated_Source\PSoC4/cyfitter_cfg.c **** {
 254:.\Generated_Source\PSoC4/cyfitter_cfg.c **** 	CY_SET_XTND_REG32((void CYFAR *)CYREG_CTBM_OA0_SW, 0x00044008u);
 255:.\Generated_Source\PSoC4/cyfitter_cfg.c **** 	CY_SET_XTND_REG32((void CYFAR *)CYREG_CTBM_OA1_SW, 0x00044002u);
 256:.\Generated_Source\PSoC4/cyfitter_cfg.c **** 	CY_SET_XTND_REG32((void CYFAR *)CYREG_CTBM_CTB_SW_HW_CTRL, 0x0000000Cu);
 257:.\Generated_Source\PSoC4/cyfitter_cfg.c **** 	CY_SET_XTND_REG32((void CYFAR *)CYREG_SAR_MUX_SWITCH0, 0x00420844u);
 258:.\Generated_Source\PSoC4/cyfitter_cfg.c **** 	CY_SET_XTND_REG32((void CYFAR *)CYREG_SAR_MUX_SWITCH_HW_CTRL, 0x0042004Cu);
 259:.\Generated_Source\PSoC4/cyfitter_cfg.c **** 	SetAnalogRoutingPumps(1);
 260:.\Generated_Source\PSoC4/cyfitter_cfg.c **** }
 261:.\Generated_Source\PSoC4/cyfitter_cfg.c **** 
 262:.\Generated_Source\PSoC4/cyfitter_cfg.c **** 
 263:.\Generated_Source\PSoC4/cyfitter_cfg.c **** /*******************************************************************************
 264:.\Generated_Source\PSoC4/cyfitter_cfg.c **** * Function Name: SetAnalogRoutingPumps
 265:.\Generated_Source\PSoC4/cyfitter_cfg.c **** ********************************************************************************
 266:.\Generated_Source\PSoC4/cyfitter_cfg.c **** *
 267:.\Generated_Source\PSoC4/cyfitter_cfg.c **** * Summary:
 268:.\Generated_Source\PSoC4/cyfitter_cfg.c **** * Enables or disables the analog pumps feeding analog routing switches.
 269:.\Generated_Source\PSoC4/cyfitter_cfg.c **** * Intended to be called at startup, based on the Vdda system configuration;
 270:.\Generated_Source\PSoC4/cyfitter_cfg.c **** * may be called during operation when the user informs us that the Vdda voltage crossed the pump th
 271:.\Generated_Source\PSoC4/cyfitter_cfg.c **** *
 272:.\Generated_Source\PSoC4/cyfitter_cfg.c **** * Parameters:
 273:.\Generated_Source\PSoC4/cyfitter_cfg.c **** *  enabled - 1 to enable the pumps, 0 to disable the pumps
 274:.\Generated_Source\PSoC4/cyfitter_cfg.c **** *
 275:.\Generated_Source\PSoC4/cyfitter_cfg.c **** * Return:
 276:.\Generated_Source\PSoC4/cyfitter_cfg.c **** *  void
 277:.\Generated_Source\PSoC4/cyfitter_cfg.c **** *
 278:.\Generated_Source\PSoC4/cyfitter_cfg.c **** *******************************************************************************/
 279:.\Generated_Source\PSoC4/cyfitter_cfg.c **** void SetAnalogRoutingPumps(uint8 enabled)
 280:.\Generated_Source\PSoC4/cyfitter_cfg.c **** {
 264              		.loc 1 280 0
 265              		.cfi_startproc
 266              	.LVL17:
 281:.\Generated_Source\PSoC4/cyfitter_cfg.c **** 	uint32 regValue = CY_GET_XTND_REG32((void *)(CYREG_SAR_PUMP_CTRL));
 267              		.loc 1 281 0
 268 0000 064B     		ldr	r3, .L13
 269 0002 1B68     		ldr	r3, [r3]
 270              	.LVL18:
 282:.\Generated_Source\PSoC4/cyfitter_cfg.c **** 	if (enabled != 0u)
 271              		.loc 1 282 0
 272 0004 0028     		cmp	r0, #0
 273 0006 03D0     		beq	.L11
 283:.\Generated_Source\PSoC4/cyfitter_cfg.c **** 	{
 284:.\Generated_Source\PSoC4/cyfitter_cfg.c **** 		regValue |= 0x80000000u;
 274              		.loc 1 284 0
 275 0008 8022     		mov	r2, #128
 276 000a 1206     		lsl	r2, r2, #24
 277 000c 1A43     		orr	r2, r3
ARM GAS  C:\Users\Anand\AppData\Local\Temp\ccYKxY3A.s 			page 11


 278              	.LVL19:
 279 000e 01E0     		b	.L12
 280              	.LVL20:
 281              	.L11:
 285:.\Generated_Source\PSoC4/cyfitter_cfg.c **** 	}
 286:.\Generated_Source\PSoC4/cyfitter_cfg.c **** 	else
 287:.\Generated_Source\PSoC4/cyfitter_cfg.c **** 	{
 288:.\Generated_Source\PSoC4/cyfitter_cfg.c **** 		regValue &= ~0x80000000u;
 282              		.loc 1 288 0
 283 0010 5A00     		lsl	r2, r3, #1
 284 0012 5208     		lsr	r2, r2, #1
 285              	.LVL21:
 286              	.L12:
 289:.\Generated_Source\PSoC4/cyfitter_cfg.c **** 	}
 290:.\Generated_Source\PSoC4/cyfitter_cfg.c **** 	CY_SET_XTND_REG32((void *)(CYREG_SAR_PUMP_CTRL), regValue);
 287              		.loc 1 290 0
 288 0014 014B     		ldr	r3, .L13
 289 0016 1A60     		str	r2, [r3]
 291:.\Generated_Source\PSoC4/cyfitter_cfg.c **** }
 290              		.loc 1 291 0
 291              		@ sp needed
 292 0018 7047     		bx	lr
 293              	.L14:
 294 001a C046     		.align	2
 295              	.L13:
 296 001c 80031A40 		.word	1075446656
 297              		.cfi_endproc
 298              	.LFE6:
 299              		.size	SetAnalogRoutingPumps, .-SetAnalogRoutingPumps
 300              		.section	.text.AnalogSetDefault,"ax",%progbits
 301              		.align	2
 302              		.code	16
 303              		.thumb_func
 304              		.type	AnalogSetDefault, %function
 305              	AnalogSetDefault:
 306              	.LFB5:
 253:.\Generated_Source\PSoC4/cyfitter_cfg.c **** {
 307              		.loc 1 253 0
 308              		.cfi_startproc
 309 0000 08B5     		push	{r3, lr}
 310              		.cfi_def_cfa_offset 8
 311              		.cfi_offset 3, -8
 312              		.cfi_offset 14, -4
 254:.\Generated_Source\PSoC4/cyfitter_cfg.c **** 	CY_SET_XTND_REG32((void CYFAR *)CYREG_CTBM_OA0_SW, 0x00044008u);
 313              		.loc 1 254 0
 314 0002 094A     		ldr	r2, .L16
 315 0004 094B     		ldr	r3, .L16+4
 316 0006 1A60     		str	r2, [r3]
 255:.\Generated_Source\PSoC4/cyfitter_cfg.c **** 	CY_SET_XTND_REG32((void CYFAR *)CYREG_CTBM_OA1_SW, 0x00044002u);
 317              		.loc 1 255 0
 318 0008 094A     		ldr	r2, .L16+8
 319 000a 0A4B     		ldr	r3, .L16+12
 320 000c 1A60     		str	r2, [r3]
 256:.\Generated_Source\PSoC4/cyfitter_cfg.c **** 	CY_SET_XTND_REG32((void CYFAR *)CYREG_CTBM_CTB_SW_HW_CTRL, 0x0000000Cu);
 321              		.loc 1 256 0
 322 000e 0C22     		mov	r2, #12
 323 0010 094B     		ldr	r3, .L16+16
ARM GAS  C:\Users\Anand\AppData\Local\Temp\ccYKxY3A.s 			page 12


 324 0012 1A60     		str	r2, [r3]
 257:.\Generated_Source\PSoC4/cyfitter_cfg.c **** 	CY_SET_XTND_REG32((void CYFAR *)CYREG_SAR_MUX_SWITCH0, 0x00420844u);
 325              		.loc 1 257 0
 326 0014 094A     		ldr	r2, .L16+20
 327 0016 0A4B     		ldr	r3, .L16+24
 328 0018 1A60     		str	r2, [r3]
 258:.\Generated_Source\PSoC4/cyfitter_cfg.c **** 	CY_SET_XTND_REG32((void CYFAR *)CYREG_SAR_MUX_SWITCH_HW_CTRL, 0x0042004Cu);
 329              		.loc 1 258 0
 330 001a 0A4A     		ldr	r2, .L16+28
 331 001c 0A4B     		ldr	r3, .L16+32
 332 001e 1A60     		str	r2, [r3]
 259:.\Generated_Source\PSoC4/cyfitter_cfg.c **** 	SetAnalogRoutingPumps(1);
 333              		.loc 1 259 0
 334 0020 0120     		mov	r0, #1
 335 0022 FFF7FEFF 		bl	SetAnalogRoutingPumps
 336              	.LVL22:
 260:.\Generated_Source\PSoC4/cyfitter_cfg.c **** }
 337              		.loc 1 260 0
 338              		@ sp needed
 339 0026 08BD     		pop	{r3, pc}
 340              	.L17:
 341              		.align	2
 342              	.L16:
 343 0028 08400400 		.word	278536
 344 002c 80001040 		.word	1074790528
 345 0030 02400400 		.word	278530
 346 0034 88001040 		.word	1074790536
 347 0038 C0001040 		.word	1074790592
 348 003c 44084200 		.word	4327492
 349 0040 00031A40 		.word	1075446528
 350 0044 4C004200 		.word	4325452
 351 0048 40031A40 		.word	1075446592
 352              		.cfi_endproc
 353              	.LFE5:
 354              		.size	AnalogSetDefault, .-AnalogSetDefault
 355              		.section	.psocinit
 356              		.align	2
 357              		.global	cyfitter_cfg
 358              		.code	16
 359              		.thumb_func
 360              		.type	cyfitter_cfg, %function
 361              	cyfitter_cfg:
 362              	.LFB7:
 292:.\Generated_Source\PSoC4/cyfitter_cfg.c **** 
 293:.\Generated_Source\PSoC4/cyfitter_cfg.c **** #define CY_AMUX_UNUSED CYREG_CM0_ROM_DWT
 294:.\Generated_Source\PSoC4/cyfitter_cfg.c **** 
 295:.\Generated_Source\PSoC4/cyfitter_cfg.c **** 
 296:.\Generated_Source\PSoC4/cyfitter_cfg.c **** /*******************************************************************************
 297:.\Generated_Source\PSoC4/cyfitter_cfg.c **** * Function Name: cyfitter_cfg
 298:.\Generated_Source\PSoC4/cyfitter_cfg.c **** ********************************************************************************
 299:.\Generated_Source\PSoC4/cyfitter_cfg.c **** * Summary:
 300:.\Generated_Source\PSoC4/cyfitter_cfg.c **** *  This function is called by the start-up code for the selected device. It
 301:.\Generated_Source\PSoC4/cyfitter_cfg.c **** *  performs all of the necessary device configuration based on the design
 302:.\Generated_Source\PSoC4/cyfitter_cfg.c **** *  settings.  This includes settings from the Design Wide Resources (DWR) such
 303:.\Generated_Source\PSoC4/cyfitter_cfg.c **** *  as Clocks and Pins as well as any component configuration that is necessary.
 304:.\Generated_Source\PSoC4/cyfitter_cfg.c **** *
 305:.\Generated_Source\PSoC4/cyfitter_cfg.c **** * Parameters:  
ARM GAS  C:\Users\Anand\AppData\Local\Temp\ccYKxY3A.s 			page 13


 306:.\Generated_Source\PSoC4/cyfitter_cfg.c **** *   void
 307:.\Generated_Source\PSoC4/cyfitter_cfg.c **** *
 308:.\Generated_Source\PSoC4/cyfitter_cfg.c **** * Return:
 309:.\Generated_Source\PSoC4/cyfitter_cfg.c **** *   void
 310:.\Generated_Source\PSoC4/cyfitter_cfg.c **** *
 311:.\Generated_Source\PSoC4/cyfitter_cfg.c **** *******************************************************************************/
 312:.\Generated_Source\PSoC4/cyfitter_cfg.c **** CY_CFG_SECTION
 313:.\Generated_Source\PSoC4/cyfitter_cfg.c **** void cyfitter_cfg(void)
 314:.\Generated_Source\PSoC4/cyfitter_cfg.c **** {
 363              		.loc 1 314 0
 364              		.cfi_startproc
 365 00e8 38B5     		push	{r3, r4, r5, lr}
 366              		.cfi_def_cfa_offset 16
 367              		.cfi_offset 3, -16
 368              		.cfi_offset 4, -12
 369              		.cfi_offset 5, -8
 370              		.cfi_offset 14, -4
 315:.\Generated_Source\PSoC4/cyfitter_cfg.c **** 	/* Disable interrupts by default. Let user enable if/when they want. */
 316:.\Generated_Source\PSoC4/cyfitter_cfg.c **** 	CyGlobalIntDisable;
 371              		.loc 1 316 0
 372              	@ 316 ".\Generated_Source\PSoC4\cyfitter_cfg.c" 1
 373 00ea 72B6     		CPSID   i
 374              	@ 0 "" 2
 317:.\Generated_Source\PSoC4/cyfitter_cfg.c **** 
 318:.\Generated_Source\PSoC4/cyfitter_cfg.c **** 	/* Enable the clock in the interrupt controller for the routed interrupts */
 319:.\Generated_Source\PSoC4/cyfitter_cfg.c **** 	CY_SET_REG8((void *)CYREG_UDB_UDBIF_INT_CLK_CTL, 0x01u);
 375              		.loc 1 319 0
 376              		.code	16
 377 00ec 0122     		mov	r2, #1
 378 00ee 414B     		ldr	r3, .L21
 379 00f0 1A70     		strb	r2, [r3]
 380              	.LVL23:
 381              	.LBB4:
 320:.\Generated_Source\PSoC4/cyfitter_cfg.c **** 	{
 321:.\Generated_Source\PSoC4/cyfitter_cfg.c **** 		static const uint32 CYCODE cy_cfg_addr_table[] = {
 322:.\Generated_Source\PSoC4/cyfitter_cfg.c **** 			0x400F3101u, /* Base address: 0x400F3100 Count: 1 */
 323:.\Generated_Source\PSoC4/cyfitter_cfg.c **** 			0x400F3204u, /* Base address: 0x400F3200 Count: 4 */
 324:.\Generated_Source\PSoC4/cyfitter_cfg.c **** 			0x400F3304u, /* Base address: 0x400F3300 Count: 4 */
 325:.\Generated_Source\PSoC4/cyfitter_cfg.c **** 			0x400F400Cu, /* Base address: 0x400F4000 Count: 12 */
 326:.\Generated_Source\PSoC4/cyfitter_cfg.c **** 			0x400F4107u, /* Base address: 0x400F4100 Count: 7 */
 327:.\Generated_Source\PSoC4/cyfitter_cfg.c **** 			0x400F4205u, /* Base address: 0x400F4200 Count: 5 */
 328:.\Generated_Source\PSoC4/cyfitter_cfg.c **** 			0x400F430Eu, /* Base address: 0x400F4300 Count: 14 */
 329:.\Generated_Source\PSoC4/cyfitter_cfg.c **** 			0x400F6002u, /* Base address: 0x400F6000 Count: 2 */
 330:.\Generated_Source\PSoC4/cyfitter_cfg.c **** 		};
 331:.\Generated_Source\PSoC4/cyfitter_cfg.c **** 
 332:.\Generated_Source\PSoC4/cyfitter_cfg.c **** 		static const cy_cfg_addrvalue_t CYCODE cy_cfg_data_table[] = {
 333:.\Generated_Source\PSoC4/cyfitter_cfg.c **** 			{0xE2u, 0x06u},
 334:.\Generated_Source\PSoC4/cyfitter_cfg.c **** 			{0x38u, 0x08u},
 335:.\Generated_Source\PSoC4/cyfitter_cfg.c **** 			{0x3Eu, 0x04u},
 336:.\Generated_Source\PSoC4/cyfitter_cfg.c **** 			{0x58u, 0x04u},
 337:.\Generated_Source\PSoC4/cyfitter_cfg.c **** 			{0x5Fu, 0x01u},
 338:.\Generated_Source\PSoC4/cyfitter_cfg.c **** 			{0x1Eu, 0x20u},
 339:.\Generated_Source\PSoC4/cyfitter_cfg.c **** 			{0x86u, 0x10u},
 340:.\Generated_Source\PSoC4/cyfitter_cfg.c **** 			{0xE4u, 0x08u},
 341:.\Generated_Source\PSoC4/cyfitter_cfg.c **** 			{0xE6u, 0x01u},
 342:.\Generated_Source\PSoC4/cyfitter_cfg.c **** 			{0x0Eu, 0x08u},
 343:.\Generated_Source\PSoC4/cyfitter_cfg.c **** 			{0x2Fu, 0x80u},
ARM GAS  C:\Users\Anand\AppData\Local\Temp\ccYKxY3A.s 			page 14


 344:.\Generated_Source\PSoC4/cyfitter_cfg.c **** 			{0x6Fu, 0x80u},
 345:.\Generated_Source\PSoC4/cyfitter_cfg.c **** 			{0x72u, 0x80u},
 346:.\Generated_Source\PSoC4/cyfitter_cfg.c **** 			{0x76u, 0x20u},
 347:.\Generated_Source\PSoC4/cyfitter_cfg.c **** 			{0x82u, 0x20u},
 348:.\Generated_Source\PSoC4/cyfitter_cfg.c **** 			{0x86u, 0x80u},
 349:.\Generated_Source\PSoC4/cyfitter_cfg.c **** 			{0xC2u, 0x80u},
 350:.\Generated_Source\PSoC4/cyfitter_cfg.c **** 			{0xCAu, 0x80u},
 351:.\Generated_Source\PSoC4/cyfitter_cfg.c **** 			{0xDCu, 0xC0u},
 352:.\Generated_Source\PSoC4/cyfitter_cfg.c **** 			{0xDEu, 0x20u},
 353:.\Generated_Source\PSoC4/cyfitter_cfg.c **** 			{0xE2u, 0x60u},
 354:.\Generated_Source\PSoC4/cyfitter_cfg.c **** 			{0x4Au, 0x04u},
 355:.\Generated_Source\PSoC4/cyfitter_cfg.c **** 			{0x5Cu, 0x10u},
 356:.\Generated_Source\PSoC4/cyfitter_cfg.c **** 			{0x80u, 0x10u},
 357:.\Generated_Source\PSoC4/cyfitter_cfg.c **** 			{0xA2u, 0x04u},
 358:.\Generated_Source\PSoC4/cyfitter_cfg.c **** 			{0xD2u, 0x10u},
 359:.\Generated_Source\PSoC4/cyfitter_cfg.c **** 			{0xD6u, 0x20u},
 360:.\Generated_Source\PSoC4/cyfitter_cfg.c **** 			{0xE6u, 0x80u},
 361:.\Generated_Source\PSoC4/cyfitter_cfg.c **** 			{0x77u, 0x08u},
 362:.\Generated_Source\PSoC4/cyfitter_cfg.c **** 			{0x7Bu, 0x01u},
 363:.\Generated_Source\PSoC4/cyfitter_cfg.c **** 			{0x82u, 0x01u},
 364:.\Generated_Source\PSoC4/cyfitter_cfg.c **** 			{0x86u, 0x04u},
 365:.\Generated_Source\PSoC4/cyfitter_cfg.c **** 			{0xDCu, 0x03u},
 366:.\Generated_Source\PSoC4/cyfitter_cfg.c **** 			{0x1Cu, 0x10u},
 367:.\Generated_Source\PSoC4/cyfitter_cfg.c **** 			{0x2Au, 0x01u},
 368:.\Generated_Source\PSoC4/cyfitter_cfg.c **** 			{0x2Eu, 0x04u},
 369:.\Generated_Source\PSoC4/cyfitter_cfg.c **** 			{0x5Bu, 0x08u},
 370:.\Generated_Source\PSoC4/cyfitter_cfg.c **** 			{0x63u, 0x02u},
 371:.\Generated_Source\PSoC4/cyfitter_cfg.c **** 			{0x80u, 0x10u},
 372:.\Generated_Source\PSoC4/cyfitter_cfg.c **** 			{0x87u, 0x01u},
 373:.\Generated_Source\PSoC4/cyfitter_cfg.c **** 			{0x96u, 0x04u},
 374:.\Generated_Source\PSoC4/cyfitter_cfg.c **** 			{0x9Eu, 0x01u},
 375:.\Generated_Source\PSoC4/cyfitter_cfg.c **** 			{0x9Fu, 0x08u},
 376:.\Generated_Source\PSoC4/cyfitter_cfg.c **** 			{0xA7u, 0x01u},
 377:.\Generated_Source\PSoC4/cyfitter_cfg.c **** 			{0xC6u, 0x04u},
 378:.\Generated_Source\PSoC4/cyfitter_cfg.c **** 			{0xCAu, 0x03u},
 379:.\Generated_Source\PSoC4/cyfitter_cfg.c **** 			{0xD6u, 0x02u},
 380:.\Generated_Source\PSoC4/cyfitter_cfg.c **** 			{0x02u, 0x01u},
 381:.\Generated_Source\PSoC4/cyfitter_cfg.c **** 			{0x11u, 0x01u},
 382:.\Generated_Source\PSoC4/cyfitter_cfg.c **** 		};
 383:.\Generated_Source\PSoC4/cyfitter_cfg.c **** 
 384:.\Generated_Source\PSoC4/cyfitter_cfg.c **** 
 385:.\Generated_Source\PSoC4/cyfitter_cfg.c **** 
 386:.\Generated_Source\PSoC4/cyfitter_cfg.c **** 		CYPACKED typedef struct {
 387:.\Generated_Source\PSoC4/cyfitter_cfg.c **** 			void CYFAR *address;
 388:.\Generated_Source\PSoC4/cyfitter_cfg.c **** 			uint16 size;
 389:.\Generated_Source\PSoC4/cyfitter_cfg.c **** 		} CYPACKED_ATTR cfg_memset_t;
 390:.\Generated_Source\PSoC4/cyfitter_cfg.c **** 
 391:.\Generated_Source\PSoC4/cyfitter_cfg.c **** 		static const cfg_memset_t CYCODE cfg_memset_list [] = {
 392:.\Generated_Source\PSoC4/cyfitter_cfg.c **** 			/* address, size */
 393:.\Generated_Source\PSoC4/cyfitter_cfg.c **** 			{(void CYFAR *)(CYDEV_UDB_P0_U0_BASE), 1024u},
 394:.\Generated_Source\PSoC4/cyfitter_cfg.c **** 			{(void CYFAR *)(CYDEV_UDB_DSI0_BASE), 1024u},
 395:.\Generated_Source\PSoC4/cyfitter_cfg.c **** 		};
 396:.\Generated_Source\PSoC4/cyfitter_cfg.c **** 
 397:.\Generated_Source\PSoC4/cyfitter_cfg.c **** 		uint8 CYDATA i;
 398:.\Generated_Source\PSoC4/cyfitter_cfg.c **** 
 399:.\Generated_Source\PSoC4/cyfitter_cfg.c **** 		/* Zero out critical memory blocks before beginning configuration */
 400:.\Generated_Source\PSoC4/cyfitter_cfg.c **** 		for (i = 0u; i < (sizeof(cfg_memset_list)/sizeof(cfg_memset_list[0])); i++)
ARM GAS  C:\Users\Anand\AppData\Local\Temp\ccYKxY3A.s 			page 15


 382              		.loc 1 400 0
 383 00f2 0024     		mov	r4, #0
 384              	.LBB5:
 401:.\Generated_Source\PSoC4/cyfitter_cfg.c **** 		{
 402:.\Generated_Source\PSoC4/cyfitter_cfg.c **** 			const cfg_memset_t CYCODE * CYDATA ms = &cfg_memset_list[i];
 385              		.loc 1 402 0
 386 00f4 404D     		ldr	r5, .L21+4
 387              	.LBE5:
 400:.\Generated_Source\PSoC4/cyfitter_cfg.c **** 		for (i = 0u; i < (sizeof(cfg_memset_list)/sizeof(cfg_memset_list[0])); i++)
 388              		.loc 1 400 0
 389 00f6 0CE0     		b	.L19
 390              	.LVL24:
 391              	.L20:
 392              	.LBB6:
 393              		.loc 1 402 0 discriminator 2
 394 00f8 6300     		lsl	r3, r4, #1
 395 00fa 1B19     		add	r3, r3, r4
 396 00fc 5B00     		lsl	r3, r3, #1
 397 00fe EB18     		add	r3, r5, r3
 398              	.LVL25:
 403:.\Generated_Source\PSoC4/cyfitter_cfg.c **** 			CYMEMZERO(ms->address, (size_t)(uint32)(ms->size));
 399              		.loc 1 403 0 discriminator 2
 400 0100 9988     		ldrh	r1, [r3, #4]
 401 0102 1A88     		ldrh	r2, [r3]
 402 0104 5888     		ldrh	r0, [r3, #2]
 403 0106 0004     		lsl	r0, r0, #16
 404 0108 1043     		orr	r0, r2
 405 010a FFF7FEFF 		bl	CYMEMZERO
 406              	.LVL26:
 407              	.LBE6:
 400:.\Generated_Source\PSoC4/cyfitter_cfg.c **** 		for (i = 0u; i < (sizeof(cfg_memset_list)/sizeof(cfg_memset_list[0])); i++)
 408              		.loc 1 400 0 discriminator 2
 409 010e 0134     		add	r4, r4, #1
 410              	.LVL27:
 411 0110 E4B2     		uxtb	r4, r4
 412              	.LVL28:
 413              	.L19:
 400:.\Generated_Source\PSoC4/cyfitter_cfg.c **** 		for (i = 0u; i < (sizeof(cfg_memset_list)/sizeof(cfg_memset_list[0])); i++)
 414              		.loc 1 400 0 is_stmt 0 discriminator 1
 415 0112 012C     		cmp	r4, #1
 416 0114 F0D9     		bls	.L20
 404:.\Generated_Source\PSoC4/cyfitter_cfg.c **** 		}
 405:.\Generated_Source\PSoC4/cyfitter_cfg.c **** 
 406:.\Generated_Source\PSoC4/cyfitter_cfg.c **** 		cfg_write_bytes32(cy_cfg_addr_table, cy_cfg_data_table);
 417              		.loc 1 406 0 is_stmt 1
 418 0116 3849     		ldr	r1, .L21+4
 419 0118 081C     		mov	r0, r1
 420 011a 0C30     		add	r0, r0, #12
 421 011c 2C31     		add	r1, r1, #44
 422 011e FFF7FEFF 		bl	cfg_write_bytes32
 423              	.LVL29:
 407:.\Generated_Source\PSoC4/cyfitter_cfg.c **** 
 408:.\Generated_Source\PSoC4/cyfitter_cfg.c **** 		/* HSIOM Starting address: CYDEV_HSIOM_BASE */
 409:.\Generated_Source\PSoC4/cyfitter_cfg.c **** 		CY_SET_XTND_REG32((void CYFAR *)(CYDEV_HSIOM_BASE), 0x00990000u);
 424              		.loc 1 409 0
 425 0122 9923     		mov	r3, #153
 426 0124 1B04     		lsl	r3, r3, #16
ARM GAS  C:\Users\Anand\AppData\Local\Temp\ccYKxY3A.s 			page 16


 427 0126 354A     		ldr	r2, .L21+8
 428 0128 1360     		str	r3, [r2]
 410:.\Generated_Source\PSoC4/cyfitter_cfg.c **** 		CY_SET_XTND_REG32((void CYFAR *)(CYREG_HSIOM_PORT_SEL1), 0x00003808u);
 429              		.loc 1 410 0
 430 012a 3549     		ldr	r1, .L21+12
 431 012c 354A     		ldr	r2, .L21+16
 432 012e 1160     		str	r1, [r2]
 411:.\Generated_Source\PSoC4/cyfitter_cfg.c **** 		CY_SET_XTND_REG32((void CYFAR *)(CYREG_HSIOM_PORT_SEL3), 0x0000EE00u);
 433              		.loc 1 411 0
 434 0130 EE21     		mov	r1, #238
 435 0132 0902     		lsl	r1, r1, #8
 436 0134 344A     		ldr	r2, .L21+20
 437 0136 1160     		str	r1, [r2]
 412:.\Generated_Source\PSoC4/cyfitter_cfg.c **** 
 413:.\Generated_Source\PSoC4/cyfitter_cfg.c **** 		/* UDB_PA_0 Starting address: CYDEV_UDB_PA0_BASE */
 414:.\Generated_Source\PSoC4/cyfitter_cfg.c **** 		CY_SET_XTND_REG32((void CYFAR *)(CYDEV_UDB_PA0_BASE), 0x00990004u);
 438              		.loc 1 414 0
 439 0138 3449     		ldr	r1, .L21+24
 440 013a 354A     		ldr	r2, .L21+28
 441 013c 1160     		str	r1, [r2]
 415:.\Generated_Source\PSoC4/cyfitter_cfg.c **** 		CY_SET_XTND_REG32((void CYFAR *)(CYREG_UDB_PA0_CFG4), 0xA0000000u);
 442              		.loc 1 415 0
 443 013e A021     		mov	r1, #160
 444 0140 0906     		lsl	r1, r1, #24
 445 0142 344A     		ldr	r2, .L21+32
 446 0144 1160     		str	r1, [r2]
 416:.\Generated_Source\PSoC4/cyfitter_cfg.c **** 
 417:.\Generated_Source\PSoC4/cyfitter_cfg.c **** 		/* UDB_PA_1 Starting address: CYDEV_UDB_PA1_BASE */
 418:.\Generated_Source\PSoC4/cyfitter_cfg.c **** 		CY_SET_XTND_REG32((void CYFAR *)(CYDEV_UDB_PA1_BASE), 0x00990000u);
 447              		.loc 1 418 0
 448 0146 344A     		ldr	r2, .L21+36
 449 0148 1360     		str	r3, [r2]
 419:.\Generated_Source\PSoC4/cyfitter_cfg.c **** 		CY_SET_XTND_REG32((void CYFAR *)(CYREG_UDB_PA1_CFG4), 0x00080000u);
 450              		.loc 1 419 0
 451 014a 8022     		mov	r2, #128
 452 014c 1203     		lsl	r2, r2, #12
 453 014e 3349     		ldr	r1, .L21+40
 454 0150 0A60     		str	r2, [r1]
 420:.\Generated_Source\PSoC4/cyfitter_cfg.c **** 		CY_SET_XTND_REG32((void CYFAR *)(CYREG_UDB_PA1_CFG8), 0x00C00000u);
 455              		.loc 1 420 0
 456 0152 C020     		mov	r0, #192
 457 0154 0004     		lsl	r0, r0, #16
 458 0156 3249     		ldr	r1, .L21+44
 459 0158 0860     		str	r0, [r1]
 421:.\Generated_Source\PSoC4/cyfitter_cfg.c **** 
 422:.\Generated_Source\PSoC4/cyfitter_cfg.c **** 		/* UDB_PA_2 Starting address: CYDEV_UDB_PA2_BASE */
 423:.\Generated_Source\PSoC4/cyfitter_cfg.c **** 		CY_SET_XTND_REG32((void CYFAR *)(CYDEV_UDB_PA2_BASE), 0x00990000u);
 460              		.loc 1 423 0
 461 015a 3249     		ldr	r1, .L21+48
 462 015c 0B60     		str	r3, [r1]
 424:.\Generated_Source\PSoC4/cyfitter_cfg.c **** 		CY_SET_XTND_REG32((void CYFAR *)(CYREG_UDB_PA2_CFG4), 0x00080000u);
 463              		.loc 1 424 0
 464 015e 3249     		ldr	r1, .L21+52
 465 0160 0A60     		str	r2, [r1]
 425:.\Generated_Source\PSoC4/cyfitter_cfg.c **** 
 426:.\Generated_Source\PSoC4/cyfitter_cfg.c **** 		/* UDB_PA_3 Starting address: CYDEV_UDB_PA3_BASE */
 427:.\Generated_Source\PSoC4/cyfitter_cfg.c **** 		CY_SET_XTND_REG32((void CYFAR *)(CYDEV_UDB_PA3_BASE), 0x00990000u);
ARM GAS  C:\Users\Anand\AppData\Local\Temp\ccYKxY3A.s 			page 17


 466              		.loc 1 427 0
 467 0162 324A     		ldr	r2, .L21+56
 468 0164 1360     		str	r3, [r2]
 428:.\Generated_Source\PSoC4/cyfitter_cfg.c **** 
 429:.\Generated_Source\PSoC4/cyfitter_cfg.c **** 		/* TCPWM_CNT0 Starting address: CYDEV_TCPWM_CNT0_TR_CTRL0 */
 430:.\Generated_Source\PSoC4/cyfitter_cfg.c **** 		CY_SET_XTND_REG32((void CYFAR *)(CYREG_TCPWM_CNT0_TR_CTRL0), 0x000EEE10u);
 469              		.loc 1 430 0
 470 0166 324A     		ldr	r2, .L21+60
 471 0168 324B     		ldr	r3, .L21+64
 472 016a 1A60     		str	r2, [r3]
 431:.\Generated_Source\PSoC4/cyfitter_cfg.c **** 
 432:.\Generated_Source\PSoC4/cyfitter_cfg.c **** 		/* INT_SELECT Starting address: CYDEV_CPUSS_INTR_SELECT */
 433:.\Generated_Source\PSoC4/cyfitter_cfg.c **** 		CY_SET_XTND_REG32((void CYFAR *)(CYREG_CPUSS_INTR_SELECT), 0x00000038u);
 473              		.loc 1 433 0
 474 016c 3822     		mov	r2, #56
 475 016e 324B     		ldr	r3, .L21+68
 476 0170 1A60     		str	r2, [r3]
 434:.\Generated_Source\PSoC4/cyfitter_cfg.c **** 
 435:.\Generated_Source\PSoC4/cyfitter_cfg.c **** 		/* Enable digital routing */
 436:.\Generated_Source\PSoC4/cyfitter_cfg.c **** 		CY_SET_XTND_REG8((void *)CYREG_UDB_UDBIF_BANK_CTL, CY_GET_XTND_REG8((void *)CYREG_UDB_UDBIF_BANK_
 477              		.loc 1 436 0
 478 0172 324B     		ldr	r3, .L21+72
 479 0174 1978     		ldrb	r1, [r3]
 480 0176 0222     		mov	r2, #2
 481 0178 0A43     		orr	r2, r1
 482 017a 1A70     		strb	r2, [r3]
 437:.\Generated_Source\PSoC4/cyfitter_cfg.c **** 
 438:.\Generated_Source\PSoC4/cyfitter_cfg.c **** 		/* Enable UDB array */
 439:.\Generated_Source\PSoC4/cyfitter_cfg.c **** 		CY_SET_XTND_REG8((void *)CYREG_UDB_UDBIF_WAIT_CFG, (uint8)((CY_GET_XTND_REG8((void *)CYREG_UDB_UD
 483              		.loc 1 439 0
 484 017c 304A     		ldr	r2, .L21+76
 485 017e 1178     		ldrb	r1, [r2]
 486 0180 3C20     		mov	r0, #60
 487 0182 8143     		bic	r1, r0
 488 0184 1420     		mov	r0, #20
 489 0186 0143     		orr	r1, r0
 490 0188 1170     		strb	r1, [r2]
 440:.\Generated_Source\PSoC4/cyfitter_cfg.c **** 		CY_SET_XTND_REG8((void *)CYREG_UDB_UDBIF_BANK_CTL, (uint8)(CY_GET_XTND_REG8((void *)CYREG_UDB_UDB
 491              		.loc 1 440 0
 492 018a 1978     		ldrb	r1, [r3]
 493 018c 1622     		mov	r2, #22
 494 018e 0A43     		orr	r2, r1
 495 0190 1A70     		strb	r2, [r3]
 496              	.LBE4:
 441:.\Generated_Source\PSoC4/cyfitter_cfg.c **** 	}
 442:.\Generated_Source\PSoC4/cyfitter_cfg.c **** 
 443:.\Generated_Source\PSoC4/cyfitter_cfg.c **** 	/* Perform second pass device configuration. These items must be configured in specific order afte
 444:.\Generated_Source\PSoC4/cyfitter_cfg.c **** 	/* IOPINS0_0 Starting address: CYDEV_PRT0_DR */
 445:.\Generated_Source\PSoC4/cyfitter_cfg.c **** 	CY_SET_XTND_REG32((void CYFAR *)(CYREG_PRT0_DR), 0x0000006Fu);
 497              		.loc 1 445 0
 498 0192 6F22     		mov	r2, #111
 499 0194 2B4B     		ldr	r3, .L21+80
 500 0196 1A60     		str	r2, [r3]
 446:.\Generated_Source\PSoC4/cyfitter_cfg.c **** 	CY_SET_XTND_REG32((void CYFAR *)(CYREG_PRT0_PC), 0x002B1000u);
 501              		.loc 1 446 0
 502 0198 2B4A     		ldr	r2, .L21+84
 503 019a 2C4B     		ldr	r3, .L21+88
ARM GAS  C:\Users\Anand\AppData\Local\Temp\ccYKxY3A.s 			page 18


 504 019c 1A60     		str	r2, [r3]
 447:.\Generated_Source\PSoC4/cyfitter_cfg.c **** 	CY_SET_XTND_REG32((void CYFAR *)(CYREG_PRT0_INTCFG), 0x00002000u);
 505              		.loc 1 447 0
 506 019e 8022     		mov	r2, #128
 507 01a0 9201     		lsl	r2, r2, #6
 508 01a2 2B4B     		ldr	r3, .L21+92
 509 01a4 1A60     		str	r2, [r3]
 448:.\Generated_Source\PSoC4/cyfitter_cfg.c **** 	CY_SET_XTND_REG32((void CYFAR *)(CYREG_PRT0_PC2), 0x0000002Fu);
 510              		.loc 1 448 0
 511 01a6 2F22     		mov	r2, #47
 512 01a8 2A4B     		ldr	r3, .L21+96
 513 01aa 1A60     		str	r2, [r3]
 449:.\Generated_Source\PSoC4/cyfitter_cfg.c **** 
 450:.\Generated_Source\PSoC4/cyfitter_cfg.c **** 	/* IOPINS0_1 Starting address: CYDEV_PRT1_DR */
 451:.\Generated_Source\PSoC4/cyfitter_cfg.c **** 	CY_SET_XTND_REG32((void CYFAR *)(CYREG_PRT1_DR), 0x0000006Du);
 514              		.loc 1 451 0
 515 01ac 6D22     		mov	r2, #109
 516 01ae 2A4B     		ldr	r3, .L21+100
 517 01b0 1A60     		str	r2, [r3]
 452:.\Generated_Source\PSoC4/cyfitter_cfg.c **** 	CY_SET_XTND_REG32((void CYFAR *)(CYREG_PRT1_PC), 0x00C06D8Eu);
 518              		.loc 1 452 0
 519 01b2 2A4A     		ldr	r2, .L21+104
 520 01b4 2A4B     		ldr	r3, .L21+108
 521 01b6 1A60     		str	r2, [r3]
 453:.\Generated_Source\PSoC4/cyfitter_cfg.c **** 	CY_SET_XTND_REG32((void CYFAR *)(CYREG_PRT1_INTCFG), 0x00000008u);
 522              		.loc 1 453 0
 523 01b8 0822     		mov	r2, #8
 524 01ba 2A4B     		ldr	r3, .L21+112
 525 01bc 1A60     		str	r2, [r3]
 454:.\Generated_Source\PSoC4/cyfitter_cfg.c **** 	CY_SET_XTND_REG32((void CYFAR *)(CYREG_PRT1_PC2), 0x00000060u);
 526              		.loc 1 454 0
 527 01be 6021     		mov	r1, #96
 528 01c0 294B     		ldr	r3, .L21+116
 529 01c2 1960     		str	r1, [r3]
 455:.\Generated_Source\PSoC4/cyfitter_cfg.c **** 
 456:.\Generated_Source\PSoC4/cyfitter_cfg.c **** 	/* IOPINS0_2 Starting address: CYDEV_PRT2_DR */
 457:.\Generated_Source\PSoC4/cyfitter_cfg.c **** 	CY_SET_XTND_REG32((void CYFAR *)(CYREG_PRT2_DR), 0x0000005Du);
 530              		.loc 1 457 0
 531 01c4 5D23     		mov	r3, #93
 532 01c6 2949     		ldr	r1, .L21+120
 533 01c8 0B60     		str	r3, [r1]
 458:.\Generated_Source\PSoC4/cyfitter_cfg.c **** 	CY_SET_XTND_REG32((void CYFAR *)(CYREG_PRT2_PC), 0x00030008u);
 534              		.loc 1 458 0
 535 01ca 2948     		ldr	r0, .L21+124
 536 01cc 2949     		ldr	r1, .L21+128
 537 01ce 0860     		str	r0, [r1]
 459:.\Generated_Source\PSoC4/cyfitter_cfg.c **** 	CY_SET_XTND_REG32((void CYFAR *)(CYREG_PRT2_INTCFG), 0x00000008u);
 538              		.loc 1 459 0
 539 01d0 2949     		ldr	r1, .L21+132
 540 01d2 0A60     		str	r2, [r1]
 460:.\Generated_Source\PSoC4/cyfitter_cfg.c **** 	CY_SET_XTND_REG32((void CYFAR *)(CYREG_PRT2_PC2), 0x0000005Du);
 541              		.loc 1 460 0
 542 01d4 294A     		ldr	r2, .L21+136
 543 01d6 1360     		str	r3, [r2]
 461:.\Generated_Source\PSoC4/cyfitter_cfg.c **** 
 462:.\Generated_Source\PSoC4/cyfitter_cfg.c **** 	/* IOPINS0_3 Starting address: CYDEV_PRT3_DR */
 463:.\Generated_Source\PSoC4/cyfitter_cfg.c **** 	CY_SET_XTND_REG32((void CYFAR *)(CYREG_PRT3_PC), 0x00000D80u);
ARM GAS  C:\Users\Anand\AppData\Local\Temp\ccYKxY3A.s 			page 19


 544              		.loc 1 463 0
 545 01d8 D822     		mov	r2, #216
 546 01da 1201     		lsl	r2, r2, #4
 547 01dc 284B     		ldr	r3, .L21+140
 548 01de 1A60     		str	r2, [r3]
 464:.\Generated_Source\PSoC4/cyfitter_cfg.c **** 
 465:.\Generated_Source\PSoC4/cyfitter_cfg.c **** 	/* IOPINS0_4 Starting address: CYDEV_PRT4_DR */
 466:.\Generated_Source\PSoC4/cyfitter_cfg.c **** 	CY_SET_XTND_REG32((void CYFAR *)(CYREG_PRT4_DR), 0x00000004u);
 549              		.loc 1 466 0
 550 01e0 0423     		mov	r3, #4
 551 01e2 284A     		ldr	r2, .L21+144
 552 01e4 1360     		str	r3, [r2]
 467:.\Generated_Source\PSoC4/cyfitter_cfg.c **** 	CY_SET_XTND_REG32((void CYFAR *)(CYREG_PRT4_PC2), 0x00000004u);
 553              		.loc 1 467 0
 554 01e6 284A     		ldr	r2, .L21+148
 555 01e8 1360     		str	r3, [r2]
 468:.\Generated_Source\PSoC4/cyfitter_cfg.c **** 
 469:.\Generated_Source\PSoC4/cyfitter_cfg.c **** 	/* Setup clocks based on selections from Clock DWR */
 470:.\Generated_Source\PSoC4/cyfitter_cfg.c **** 	ClockSetup();
 556              		.loc 1 470 0
 557 01ea FFF709FF 		bl	ClockSetup
 558              	.LVL30:
 471:.\Generated_Source\PSoC4/cyfitter_cfg.c **** 
 472:.\Generated_Source\PSoC4/cyfitter_cfg.c **** 	/* Perform basic analog initialization to defaults */
 473:.\Generated_Source\PSoC4/cyfitter_cfg.c **** 	AnalogSetDefault();
 559              		.loc 1 473 0
 560 01ee FFF7FEFF 		bl	AnalogSetDefault
 561              	.LVL31:
 474:.\Generated_Source\PSoC4/cyfitter_cfg.c **** 
 475:.\Generated_Source\PSoC4/cyfitter_cfg.c **** }
 562              		.loc 1 475 0
 563              		@ sp needed
 564              	.LVL32:
 565 01f2 38BD     		pop	{r3, r4, r5, pc}
 566              	.L22:
 567              		.align	2
 568              	.L21:
 569 01f4 1C700F40 		.word	1074753564
 570 01f8 00000000 		.word	.LANCHOR0
 571 01fc 00000140 		.word	1073807360
 572 0200 08380000 		.word	14344
 573 0204 04000140 		.word	1073807364
 574 0208 0C000140 		.word	1073807372
 575 020c 04009900 		.word	10027012
 576 0210 00500F40 		.word	1074745344
 577 0214 04500F40 		.word	1074745348
 578 0218 10500F40 		.word	1074745360
 579 021c 14500F40 		.word	1074745364
 580 0220 18500F40 		.word	1074745368
 581 0224 20500F40 		.word	1074745376
 582 0228 24500F40 		.word	1074745380
 583 022c 30500F40 		.word	1074745392
 584 0230 10EE0E00 		.word	978448
 585 0234 20010540 		.word	1074069792
 586 0238 20000040 		.word	1073741856
 587 023c 00700F40 		.word	1074753536
 588 0240 01700F40 		.word	1074753537
ARM GAS  C:\Users\Anand\AppData\Local\Temp\ccYKxY3A.s 			page 20


 589 0244 00000440 		.word	1074003968
 590 0248 00102B00 		.word	2822144
 591 024c 08000440 		.word	1074003976
 592 0250 0C000440 		.word	1074003980
 593 0254 18000440 		.word	1074003992
 594 0258 00010440 		.word	1074004224
 595 025c 8E6DC000 		.word	12610958
 596 0260 08010440 		.word	1074004232
 597 0264 0C010440 		.word	1074004236
 598 0268 18010440 		.word	1074004248
 599 026c 00020440 		.word	1074004480
 600 0270 08000300 		.word	196616
 601 0274 08020440 		.word	1074004488
 602 0278 0C020440 		.word	1074004492
 603 027c 18020440 		.word	1074004504
 604 0280 08030440 		.word	1074004744
 605 0284 00040440 		.word	1074004992
 606 0288 18040440 		.word	1074005016
 607              		.cfi_endproc
 608              	.LFE7:
 609              		.size	cyfitter_cfg, .-cyfitter_cfg
 610              		.section	.rodata
 611              		.align	2
 612              		.set	.LANCHOR0,. + 0
 613              		.type	cfg_memset_list.4746, %object
 614              		.size	cfg_memset_list.4746, 12
 615              	cfg_memset_list.4746:
 616 0000 00300F40 		.word	1074737152
 617 0004 0004     		.short	1024
 618 0006 00400F40 		.4byte	1074741248
 619 000a 0004     		.short	1024
 620              		.type	cy_cfg_addr_table.4740, %object
 621              		.size	cy_cfg_addr_table.4740, 32
 622              	cy_cfg_addr_table.4740:
 623 000c 01310F40 		.word	1074737409
 624 0010 04320F40 		.word	1074737668
 625 0014 04330F40 		.word	1074737924
 626 0018 0C400F40 		.word	1074741260
 627 001c 07410F40 		.word	1074741511
 628 0020 05420F40 		.word	1074741765
 629 0024 0E430F40 		.word	1074742030
 630 0028 02600F40 		.word	1074749442
 631              		.type	cy_cfg_data_table.4741, %object
 632              		.size	cy_cfg_data_table.4741, 98
 633              	cy_cfg_data_table.4741:
 634 002c E2       		.byte	-30
 635 002d 06       		.byte	6
 636 002e 38       		.byte	56
 637 002f 08       		.byte	8
 638 0030 3E       		.byte	62
 639 0031 04       		.byte	4
 640 0032 58       		.byte	88
 641 0033 04       		.byte	4
 642 0034 5F       		.byte	95
 643 0035 01       		.byte	1
 644 0036 1E       		.byte	30
 645 0037 20       		.byte	32
ARM GAS  C:\Users\Anand\AppData\Local\Temp\ccYKxY3A.s 			page 21


 646 0038 86       		.byte	-122
 647 0039 10       		.byte	16
 648 003a E4       		.byte	-28
 649 003b 08       		.byte	8
 650 003c E6       		.byte	-26
 651 003d 01       		.byte	1
 652 003e 0E       		.byte	14
 653 003f 08       		.byte	8
 654 0040 2F       		.byte	47
 655 0041 80       		.byte	-128
 656 0042 6F       		.byte	111
 657 0043 80       		.byte	-128
 658 0044 72       		.byte	114
 659 0045 80       		.byte	-128
 660 0046 76       		.byte	118
 661 0047 20       		.byte	32
 662 0048 82       		.byte	-126
 663 0049 20       		.byte	32
 664 004a 86       		.byte	-122
 665 004b 80       		.byte	-128
 666 004c C2       		.byte	-62
 667 004d 80       		.byte	-128
 668 004e CA       		.byte	-54
 669 004f 80       		.byte	-128
 670 0050 DC       		.byte	-36
 671 0051 C0       		.byte	-64
 672 0052 DE       		.byte	-34
 673 0053 20       		.byte	32
 674 0054 E2       		.byte	-30
 675 0055 60       		.byte	96
 676 0056 4A       		.byte	74
 677 0057 04       		.byte	4
 678 0058 5C       		.byte	92
 679 0059 10       		.byte	16
 680 005a 80       		.byte	-128
 681 005b 10       		.byte	16
 682 005c A2       		.byte	-94
 683 005d 04       		.byte	4
 684 005e D2       		.byte	-46
 685 005f 10       		.byte	16
 686 0060 D6       		.byte	-42
 687 0061 20       		.byte	32
 688 0062 E6       		.byte	-26
 689 0063 80       		.byte	-128
 690 0064 77       		.byte	119
 691 0065 08       		.byte	8
 692 0066 7B       		.byte	123
 693 0067 01       		.byte	1
 694 0068 82       		.byte	-126
 695 0069 01       		.byte	1
 696 006a 86       		.byte	-122
 697 006b 04       		.byte	4
 698 006c DC       		.byte	-36
 699 006d 03       		.byte	3
 700 006e 1C       		.byte	28
 701 006f 10       		.byte	16
 702 0070 2A       		.byte	42
ARM GAS  C:\Users\Anand\AppData\Local\Temp\ccYKxY3A.s 			page 22


 703 0071 01       		.byte	1
 704 0072 2E       		.byte	46
 705 0073 04       		.byte	4
 706 0074 5B       		.byte	91
 707 0075 08       		.byte	8
 708 0076 63       		.byte	99
 709 0077 02       		.byte	2
 710 0078 80       		.byte	-128
 711 0079 10       		.byte	16
 712 007a 87       		.byte	-121
 713 007b 01       		.byte	1
 714 007c 96       		.byte	-106
 715 007d 04       		.byte	4
 716 007e 9E       		.byte	-98
 717 007f 01       		.byte	1
 718 0080 9F       		.byte	-97
 719 0081 08       		.byte	8
 720 0082 A7       		.byte	-89
 721 0083 01       		.byte	1
 722 0084 C6       		.byte	-58
 723 0085 04       		.byte	4
 724 0086 CA       		.byte	-54
 725 0087 03       		.byte	3
 726 0088 D6       		.byte	-42
 727 0089 02       		.byte	2
 728 008a 02       		.byte	2
 729 008b 01       		.byte	1
 730 008c 11       		.byte	17
 731 008d 01       		.byte	1
 732 008e 0000     		.text
 733              	.Letext0:
 734              		.file 2 "c:\\program files (x86)\\cypress\\psoc creator\\3.2\\psoc creator\\import\\gnu\\arm\\4.8.
 735              		.file 3 ".\\Generated_Source\\PSoC4\\cytypes.h"
 736              		.file 4 ".\\Generated_Source\\PSoC4\\CyLib.h"