ARM GAS  C:\Users\Anand\AppData\Local\Temp\ccFdFoXM.s 			page 1


   1              		.cpu cortex-m0
   2              		.fpu softvfp
   3              		.eabi_attribute 20, 1
   4              		.eabi_attribute 21, 1
   5              		.eabi_attribute 23, 3
   6              		.eabi_attribute 24, 1
   7              		.eabi_attribute 25, 1
   8              		.eabi_attribute 26, 1
   9              		.eabi_attribute 30, 1
  10              		.eabi_attribute 34, 0
  11              		.eabi_attribute 18, 4
  12              		.code	16
  13              		.file	"main.c"
  14              		.text
  15              	.Ltext0:
  16              		.cfi_sections	.debug_frame
  17              		.section	.text.reverseBits,"ax",%progbits
  18              		.align	2
  19              		.global	reverseBits
  20              		.code	16
  21              		.thumb_func
  22              		.type	reverseBits, %function
  23              	reverseBits:
  24              	.LFB33:
  25              		.file 1 ".\\main.c"
   1:.\main.c      **** #include <project.h>
   2:.\main.c      **** #include <stdio.h>
   3:.\main.c      **** #include <stdlib.h>
   4:.\main.c      **** 
   5:.\main.c      **** #define MAX_BUFFER_SIZE 64
   6:.\main.c      **** #define MAX_ITERATIONS 100
   7:.\main.c      **** 
   8:.\main.c      **** uint reverseBits(uint v){
  26              		.loc 1 8 0
  27              		.cfi_startproc
  28              	.LVL0:
  29 0000 10B5     		push	{r4, lr}
  30              		.cfi_def_cfa_offset 8
  31              		.cfi_offset 4, -8
  32              		.cfi_offset 14, -4
  33              	.LVL1:
   9:.\main.c      ****         // input bits to be reversed
  10:.\main.c      ****     unsigned int r = v; // r will be reversed bits of v; first get LSB of v
  11:.\main.c      ****     int s = sizeof(v) * 8-1; // extra shift needed at end
  12:.\main.c      **** 
  13:.\main.c      ****     for (v >>= 1; v; v >>= 1){   
  34              		.loc 1 13 0
  35 0002 4308     		lsr	r3, r0, #1
  36              	.LVL2:
  11:.\main.c      ****     int s = sizeof(v) * 8-1; // extra shift needed at end
  37              		.loc 1 11 0
  38 0004 1F22     		mov	r2, #31
  14:.\main.c      ****         r <<= 1;
  15:.\main.c      ****         r |= v & 1;
  39              		.loc 1 15 0
  40 0006 0124     		mov	r4, #1
  13:.\main.c      ****     for (v >>= 1; v; v >>= 1){   
ARM GAS  C:\Users\Anand\AppData\Local\Temp\ccFdFoXM.s 			page 2


  41              		.loc 1 13 0
  42 0008 05E0     		b	.L2
  43              	.LVL3:
  44              	.L3:
  14:.\main.c      ****         r <<= 1;
  45              		.loc 1 14 0 discriminator 2
  46 000a 4000     		lsl	r0, r0, #1
  47              	.LVL4:
  48              		.loc 1 15 0 discriminator 2
  49 000c 211C     		mov	r1, r4
  50 000e 1940     		and	r1, r3
  51 0010 0843     		orr	r0, r1
  52              	.LVL5:
  16:.\main.c      ****         s--;
  53              		.loc 1 16 0 discriminator 2
  54 0012 013A     		sub	r2, r2, #1
  55              	.LVL6:
  13:.\main.c      ****     for (v >>= 1; v; v >>= 1){   
  56              		.loc 1 13 0 discriminator 2
  57 0014 5B08     		lsr	r3, r3, #1
  58              	.LVL7:
  59              	.L2:
  13:.\main.c      ****     for (v >>= 1; v; v >>= 1){   
  60              		.loc 1 13 0 is_stmt 0 discriminator 1
  61 0016 002B     		cmp	r3, #0
  62 0018 F7D1     		bne	.L3
  17:.\main.c      ****     }
  18:.\main.c      ****     
  19:.\main.c      ****     r <<= s; // shift when v's highest bits are zero
  63              		.loc 1 19 0 is_stmt 1
  64 001a 9040     		lsl	r0, r0, r2
  65              	.LVL8:
  20:.\main.c      **** 
  21:.\main.c      ****     return r;
  22:.\main.c      **** }
  66              		.loc 1 22 0
  67              		@ sp needed
  68 001c 10BD     		pop	{r4, pc}
  69              		.cfi_endproc
  70              	.LFE33:
  71              		.size	reverseBits, .-reverseBits
  72 001e C046     		.section	.text.main,"ax",%progbits
  73              		.align	2
  74              		.global	main
  75              		.code	16
  76              		.thumb_func
  77              		.type	main, %function
  78              	main:
  79              	.LFB34:
  23:.\main.c      **** 
  24:.\main.c      **** int main(){
  80              		.loc 1 24 0
  81              		.cfi_startproc
  82 0000 70B5     		push	{r4, r5, r6, lr}
  83              		.cfi_def_cfa_offset 16
  84              		.cfi_offset 4, -16
  85              		.cfi_offset 5, -12
ARM GAS  C:\Users\Anand\AppData\Local\Temp\ccFdFoXM.s 			page 3


  86              		.cfi_offset 6, -8
  87              		.cfi_offset 14, -4
  88 0002 90B0     		sub	sp, sp, #64
  89              		.cfi_def_cfa_offset 80
  25:.\main.c      **** 
  26:.\main.c      ****     // allocate buffer size for input
  27:.\main.c      ****     char buf[MAX_BUFFER_SIZE];
  28:.\main.c      ****     CyGlobalIntEnable;      /* Enable global interrupts */
  90              		.loc 1 28 0
  91              	@ 28 ".\main.c" 1
  92 0004 62B6     		CPSIE   i
  93              	@ 0 "" 2
  29:.\main.c      ****     
  30:.\main.c      ****     // start UART
  31:.\main.c      ****     UART_1_Start();
  94              		.loc 1 31 0
  95              		.code	16
  96 0006 FFF7FEFF 		bl	UART_1_Start
  97              	.LVL9:
  32:.\main.c      ****     
  33:.\main.c      ****     // print line
  34:.\main.c      ****     strcpy(buf, "Established Communication \n \r");
  98              		.loc 1 34 0
  99 000a 6C46     		mov	r4, sp
 100 000c 1049     		ldr	r1, .L6
 101 000e 6B46     		mov	r3, sp
 102 0010 0A1C     		mov	r2, r1
 103 0012 61CA     		ldmia	r2!, {r0, r5, r6}
 104 0014 61C3     		stmia	r3!, {r0, r5, r6}
 105 0016 23CA     		ldmia	r2!, {r0, r1, r5}
 106 0018 23C3     		stmia	r3!, {r0, r1, r5}
 107 001a 1668     		ldr	r6, [r2]
 108 001c 1E60     		str	r6, [r3]
 109 001e 9288     		ldrh	r2, [r2, #4]
 110 0020 9A80     		strh	r2, [r3, #4]
  35:.\main.c      ****     UART_1_UartPutString(buf);
 111              		.loc 1 35 0
 112 0022 6846     		mov	r0, sp
 113 0024 FFF7FEFF 		bl	UART_1_UartPutString
 114              	.LVL10:
  36:.\main.c      ****     
  37:.\main.c      ****     uint v4 = 0x56; // hex representation of the integer
  38:.\main.c      ****     uint vv4 = reverseBits(v4);
 115              		.loc 1 38 0
 116 0028 5620     		mov	r0, #86
 117 002a FFF7FEFF 		bl	reverseBits
 118              	.LVL11:
 119 002e 021C     		mov	r2, r0
 120              	.LVL12:
  39:.\main.c      ****     
  40:.\main.c      ****     // print result
  41:.\main.c      ****     // integer to string to be printed
  42:.\main.c      ****     sprintf(buf, "%X", vv4);
 121              		.loc 1 42 0
 122 0030 6846     		mov	r0, sp
 123              	.LVL13:
 124 0032 0849     		ldr	r1, .L6+4
ARM GAS  C:\Users\Anand\AppData\Local\Temp\ccFdFoXM.s 			page 4


 125 0034 FFF7FEFF 		bl	sprintf
 126              	.LVL14:
  43:.\main.c      ****     strcat(buf, "\n \r");
 127              		.loc 1 43 0
 128 0038 6846     		mov	r0, sp
 129 003a FFF7FEFF 		bl	strlen
 130              	.LVL15:
 131 003e 2018     		add	r0, r4, r0
 132 0040 0549     		ldr	r1, .L6+8
 133 0042 0422     		mov	r2, #4
 134 0044 FFF7FEFF 		bl	memcpy
 135              	.LVL16:
  44:.\main.c      ****     UART_1_UartPutString(buf);
 136              		.loc 1 44 0
 137 0048 6846     		mov	r0, sp
 138 004a FFF7FEFF 		bl	UART_1_UartPutString
 139              	.LVL17:
 140              	.L5:
 141 004e FEE7     		b	.L5
 142              	.L7:
 143              		.align	2
 144              	.L6:
 145 0050 00000000 		.word	.LC0
 146 0054 20000000 		.word	.LC2
 147 0058 24000000 		.word	.LC4
 148              		.cfi_endproc
 149              	.LFE34:
 150              		.size	main, .-main
 151              		.section	.rodata.str1.4,"aMS",%progbits,1
 152              		.align	2
 153              	.LC0:
 154 0000 45737461 		.ascii	"Established Communication \012 \015\000"
 154      626C6973 
 154      68656420 
 154      436F6D6D 
 154      756E6963 
 155 001e 0000     		.space	2
 156              	.LC2:
 157 0020 255800   		.ascii	"%X\000"
 158 0023 00       		.space	1
 159              	.LC4:
 160 0024 0A200D00 		.ascii	"\012 \015\000"
 161              		.text
 162              	.Letext0:
 163              		.file 2 "Generated_Source\\PSoC4/cytypes.h"
 164              		.file 3 "c:\\program files (x86)\\cypress\\psoc creator\\3.2\\psoc creator\\import\\gnu\\arm\\4.8.
 165              		.file 4 "Generated_Source\\PSoC4/UART_1.h"
 166              		.file 5 "Generated_Source\\PSoC4/UART_1_SPI_UART.h"
 167              		.file 6 "c:\\program files (x86)\\cypress\\psoc creator\\3.2\\psoc creator\\import\\gnu\\arm\\4.8.
 168              		.file 7 "<built-in>"